(dp1
S''
F472.03322996132272
sS'urbana'
p2
F154.69487531814673
sS'liar'
p3
F191.67977024299117
sS'consider'
p4
F244.00298362134814
sS'charley'
p5
F154.69487531814673
sS'caused'
p6
F209.53384191180476
sS'lack'
p7
F186.80733035759181
sS'results'
p8
F170.60976630333838
sS'edm'
p9
F161.56048509865084
sS'1993apr14'
p10
F149.78661367769953
sS'concept'
p11
F143.70756083178767
sS'go'
p12
F323.49702039925415
sS'follow'
p13
F222.62367331385857
sS'involved'
p14
F144.7648790818325
sS'religious'
p15
F343.44975317470011
sS'children'
p16
F162.42363724998131
sS'issues'
p17
F140.6499531545156
sS'certainly'
p18
F255.65965268038582
sS'simon'
p19
F160.32864272323587
sS'peter'
p20
F139.54917551453178
sS'umd'
p21
F350.22871126546409
sS'tu'
p22
F386.33861308542868
sS'send'
p23
F178.40213553301729
sS'0'
F276.21667834944179
sS'macalstr'
p24
F199.45057173932867
sS'blaze'
p25
F210.08154291768946
sS'1993apr15'
p26
F236.9022031191445
sS'sorry'
p27
F212.44070294849712
sS'must'
p28
F373.88248642309861
sS'worth'
p29
F155.6855583677908
sS'dwyer'
p30
F333.63235764934268
sS'lefty'
p31
F140.60842323800904
sS'cobb'
p32
F398.69946932740203
sS'outside'
p33
F189.67218149795011
sS'far'
p34
F270.33242420189134
sS'faq'
p35
F261.88362693978911
sS'utexas'
p36
F312.60468304952394
sS'choice'
p37
F151.7724119591484
sS'rushdie'
p38
F304.02247469019744
sS'every'
p39
F297.49683282076143
sS'mps'
p40
F389.59667152155873
sS'uwm'
p41
F181.10519819260847
sS'fall'
p42
F152.78234595125355
sS'animals'
p43
F174.935552581536
sS'little'
p44
F313.42060389990377
sS'ibm'
p45
F229.602912763266
sS'school'
p46
F145.75460486756381
sS'obvious'
p47
F154.69487531814673
sS'level'
p48
F156.62279306248197
sS'die'
p49
F194.86018914176245
sS'f'
F145.82394039214336
sS'list'
p50
F191.06259616186344
sS'ryan'
p51
F214.30715917001658
sS'dbstu1'
p52
F370.53891233018862
sS'try'
p53
F309.66650516544877
sS'p'
F354.22273079194917
sS'jhu'
p54
F299.42894721473237
sS'yale'
p55
F196.21014715534506
sS'trw'
p56
F258.92662261197563
sS'darice'
p57
F202.58391856914861
sS'tek'
p58
F378.40363799479923
sS'says'
p59
F311.68899835349544
sS'consistent'
p60
F140.6499531545156
sS'beliefs'
p61
F287.84677601089004
sS'past'
p62
F150.78208958043621
sS'second'
p63
F210.99308651466214
sS'arizona'
p64
F263.82495514566716
sS'quite'
p65
F302.76485797301365
sS'theory'
p66
F341.35209435428396
sS'even'
p67
F359.92214864471538
sS'pipex'
p68
F222.62367331385857
sS'compaq'
p69
F216.89618295914738
sS'dept'
p70
F164.15263443443223
sS'sun'
p71
F396.76177233933487
sS'jaeger'
p72
F389.61839817995201
sS'theist'
p73
F142.71805059948957
sS'debate'
p74
F175.92782051983778
sS'dsinc'
p75
F306.64573491557826
sS'version'
p76
F250.03726657842725
sS'usenet'
p77
F391.26739287897249
sS'uucp'
p78
F329.482527329064
sS'uwec'
p79
F175.82661888306626
sS'mchp'
p80
F466.30431619827357
sS'reply'
p81
F287.97438711855301
sS'net'
p82
F148.4223088476603
sS'ever'
p83
F266.26509220730912
sS'public'
p84
F147.780814062704
sS'told'
p85
F172.39849542409684
sS'full'
p86
F140.6499531545156
sS'christian'
p87
F373.41224522064664
sS'never'
p88
F339.16461210906971
sS'answers'
p89
F213.20270470874701
sS'atoms'
p90
F169.61787453015978
sS'behaviour'
p91
F142.71805059948957
sS'believed'
p92
F166.98285226950864
sS'fatwa'
p93
F142.71805059948957
sS'let'
p94
F261.07707691294002
sS'possibility'
p95
F150.78208958043621
sS'others'
p96
F313.17161145403298
sS'along'
p97
F164.15263443443223
sS'strong'
p98
F230.97138574739668
sS'change'
p99
F210.5397708118
sS'great'
p100
F257.85075116829961
sS'bible'
p101
F358.97632057923431
sS'sender'
p102
F356.4267143800393
sS'ctr'
p103
F164.15263443443223
sS'institute'
p104
F190.06938356179162
sS'32'
p105
F164.15263443443223
sS'k'
F202.55203871314779
sS'ctron'
p106
F405.61638591451475
sS'37'
p107
F169.61787453015978
sS'36'
p108
F152.7480950023608
sS'mantis'
p109
F411.53027280348164
sS'34'
p110
F162.29679930083591
sS'rosenau'
p111
F173.17894832421533
sS'social'
p112
F199.98808885601935
sS'usually'
p113
F184.48176543255656
sS'opinion'
p114
F282.61611669762414
sS'bob'
p115
F163.28812863541245
sS'history'
p116
F270.32864914565386
sS'makes'
p117
F307.22296770682925
sS'oulu'
p118
F296.88304131229773
sS'satan'
p119
F204.58402018896871
sS'acooper'
p120
F150.78208958043621
sS'hatching'
p121
F144.7648790818325
sS'useful'
p122
F229.65389457640146
sS'apple'
p123
F482.65481676830495
sS'morals'
p124
F236.14138050051039
sS'reserve'
p125
F148.79648231289059
sS'merely'
p126
F190.06938356179162
sS'imagine'
p127
F151.7724119591484
sS'logical'
p128
F183.48894254836168
sS'assertion'
p129
F202.05829154466045
sS'sgi'
p130
F409.29314825544719
sS'put'
p131
F248.88743592538819
sS'unix'
p132
F204.09100303721419
sS'moral'
p133
F369.10434987248351
sS'apply'
p134
F146.79088140414555
sS'rusnews'
p135
F336.2572869758618
sS'discuss'
p136
F156.62279306248197
sS'1993apr20'
p137
F244.07401985736885
sS'1993apr21'
p138
F156.62279306248197
sS'usc'
p139
F233.12653112359874
sS'takes'
p140
F154.69487531814673
sS'usa'
p141
F165.99123228884216
sS'prove'
p142
F245.38592185640351
sS'positive'
p143
F145.75460486756381
sS'stated'
p144
F174.17109481320807
sS'two'
p145
F327.85018001381496
sS'next'
p146
F146.79088140414555
sS'live'
p147
F193.67989199969719
sS'doubt'
p148
F212.88246401399977
sS'call'
p149
F211.44640641184193
sS'therefore'
p150
F296.30163595322296
sS'6'
F266.29761190037055
sS'taken'
p151
F140.6499531545156
sS'believing'
p152
F185.15527813585751
sS'tell'
p153
F267.31875871115301
sS'today'
p154
F154.69487531814673
sS'benedikt'
p155
F250.03726657842725
sS'posting'
p156
F311.77483714969418
sS'holy'
p157
F148.79648231289059
sS'club'
p158
F325.60757361960384
sS'eczcaw'
p159
F140.6499531545156
sS'acceptable'
p160
F159.52321515623163
sS'problem'
p161
F277.17380743608447
sS'gtefsd'
p162
F364.27881672501462
sS'mathew'
p163
F449.82223125907359
sS'dogma'
p164
F175.4735057747379
sS'particular'
p165
F226.30529714643919
sS'known'
p166
F221.89490327977799
sS'93'
p167
F365.27066555046156
sS'hold'
p168
F193.27664540218544
sS'women'
p169
F232.27878003115649
sS'majority'
p170
F148.79648231289059
sS'account'
p171
F186.80733035759181
sS'darwin'
p172
F269.33855308822149
sS'word'
p173
F299.67693832925153
sS'anything'
p174
F339.32201637978386
sS'rights'
p175
F153.73860114083692
sS'science'
p176
F379.35565789478687
sS'work'
p177
F261.00564487586308
sS'abortion'
p178
F339.86959428811792
sS'theories'
p179
F171.40647426061747
sS'values'
p180
F337.09991362516837
sS'universe'
p181
F315.52291076891447
sS'following'
p182
F245.38592185640351
sS'making'
p183
F225.31041663022179
sS'reston'
p184
F305.4962066681577
sS'example'
p185
F355.52744058724568
sS'proof'
p186
F219.76624442947977
sS'control'
p187
F171.61805372236222
sS'claim'
p188
F362.04849423173658
sS'41'
p189
F165.99123228884216
sS'give'
p190
F278.28840944156173
sS'cwru'
p191
F448.85364389764618
sS'allowed'
p192
F144.7648790818325
sS'accept'
p193
F290.68698736051118
sS'days'
p194
F164.15263443443223
sS'high'
p195
F164.15263443443223
sS'heard'
p196
F180.11258744500404
sS'something'
p197
F376.89993002876503
sS'want'
p198
F317.19966050293533
sS'sense'
p199
F307.77119643909901
sS'times'
p200
F217.12296987591182
sS'wingate'
p201
F164.15263443443223
sS'species'
p202
F182.11273597603267
sS'absolute'
p203
F207.58599063258436
sS'monash'
p204
F383.80882250780184
sS'information'
p205
F261.76092399049446
sS'cso'
p206
F396.1012559280685
sS'end'
p207
F208.5396785319335
sS'goal'
p208
F150.87658024215906
sS'eng'
p209
F381.29945276829352
sS'rather'
p210
F326.60517745041034
sS'ie'
p211
F183.48894254836168
sS'discussion'
p212
F235.65319941135735
sS'means'
p213
F312.85360058002203
sS'american'
p214
F168.80464300560217
sS'1'
F447.63442708878284
sS'necessary'
p215
F183.48894254836168
sS'luke'
p216
F142.65026830374359
sS'answer'
p217
F270.33242420189134
sS'immoral'
p218
F189.43841951755789
sS'healta'
p219
F244.04529822669025
sS'irrational'
p220
F158.15573224980267
sS'may'
p221
F385.917108522977
sS'earlier'
p222
F138.56012471218691
sS'nyx'
p223
F156.62279306248197
sS'sni'
p224
F466.30431619827357
sS'islamic'
p225
F353.1463539989428
sS'wrong'
p226
F342.20986332769689
sS'men'
p227
F234.12170794750764
sS'fi'
p228
F409.97427997970226
sS'law'
p229
F313.94726872588251
sS'disagree'
p230
F171.61805372236222
sS'response'
p231
F169.61787453015978
sS'man'
p232
F287.1068449576851
sS'ultb'
p233
F218.94807542688486
sS'short'
p234
F144.7648790818325
sS'natural'
p235
F257.46976130212573
sS'remember'
p236
F187.80035353779834
sS'maybe'
p237
F225.97232518863325
sS'schneider'
p238
F250.03726657842725
sS'columbia'
p239
F164.15263443443223
sS'like'
p240
F325.8051035103278
sS'provide'
p241
F142.71805059948957
sS'ones'
p242
F158.77381049836151
sS'newsgroup'
p243
F144.7648790818325
sS'allow'
p244
F158.53219735358434
sS'order'
p245
F208.5396785319335
sS'talk'
p246
F565.09107830249468
sS'relativism'
p247
F156.6951127012376
sS'help'
p248
F180.11258744500404
sS'indeed'
p249
F217.12296987591182
sS'choose'
p250
F142.71805059948957
sS'years'
p251
F362.98283193572144
sS'course'
p252
F330.01731189540232
sS'including'
p253
F152.7480950023608
sS'mentioned'
p254
F150.78208958043621
sS'hell'
p255
F187.80035353779834
sS'still'
p256
F356.87910083695397
sS'islam'
p257
F361.94793788398493
sS'perfect'
p258
F180.40228859970901
sS'25'
p259
F204.58402018896871
sS'26'
p260
F245.00751536405903
sS'27'
p261
F178.40213553301729
sS'group'
p262
F270.3302081188711
sS'21'
p263
F371.36230680048516
sS'22'
p264
F297.84783762708338
sS'23'
p265
F338.53902826476593
sS'personal'
p266
F178.40213553301729
sS'interesting'
p267
F190.06938356179162
sS'll'
p268
F305.27668110027832
sS'jim'
p269
F322.69596288299789
sS'28'
p270
F199.53256290035219
sS'29'
p271
F180.11258744500404
sS'actually'
p272
F314.87556188135147
sS'better'
p273
F371.68575160004934
sS'willing'
p274
F152.7480950023608
sS'conner'
p275
F197.4241389988909
sS'mail'
p276
F238.43401526265126
sS'might'
p277
F328.39898322354082
sS'wouldn'
p278
F254.43162434401091
sS'non'
p279
F287.84677601089004
sS'someone'
p280
F347.57559562935734
sS'deletion'
p281
F144.7648790818325
sS'dan'
p282
F207.06873788931293
sS'noc'
p283
F362.65927140292587
sS'das'
p284
F363.35142702589735
sS'odin'
p285
F154.69487531814673
sS'day'
p286
F274.36723650341207
sS'bank'
p287
F157.72427125166402
sS'easily'
p288
F142.71805059948957
sS'term'
p289
F146.79088140414555
sS'name'
p290
F222.62367331385857
sS'uknet'
p291
F170.06181170657229
sS'james'
p292
F194.86018914176245
sS'university'
p293
F360.75939308068695
sS'didn'
p294
F284.56799773288219
sS'rh'
p295
F140.6499531545156
sS'reasonable'
p296
F207.06873788931293
sS'found'
p297
F215.72061952187585
sS'alexia'
p298
F260.00959225796674
sS'mean'
p299
F359.50089108450265
sS'everyone'
p300
F232.56109439239864
sS'khomeini'
p301
F177.66892059062249
sS'energy'
p302
F193.09050434168
sS'hard'
p303
F219.89482619422836
sS'allan'
p304
F230.56102903548447
sS'society'
p305
F285.68108113830669
sS'books'
p306
F246.56183917055313
sS'expect'
p307
F169.01753665770764
sS'monu6'
p308
F275.68211443262493
sS'eu'
p309
F140.6499531545156
sS'assumption'
p310
F188.17733016642211
sS'happen'
p311
F183.48894254836168
sS'beyond'
p312
F170.60976630333838
sS'event'
p313
F215.89990248011941
sS'really'
p314
F361.66129889437485
sS'gallant'
p315
F148.79648231289059
sS'large'
p316
F156.62279306248197
sS'perry'
p317
F324.59359860167183
sS'network'
p318
F144.7648790818325
sS'space'
p319
F171.40647426061747
sS'robert'
p320
F244.20115555021721
sS'since'
p321
F347.08890039122252
sS'rz'
p322
F371.51984285471633
sS'rational'
p323
F165.14411156927162
sS'looking'
p324
F138.56012471218691
sS'include'
p325
F148.79648231289059
sS'theists'
p326
F221.26456841387008
sS'kent'
p327
F335.63847260535232
sS'at1'
p328
F140.56045402787441
sS'got'
p329
F227.95592420641054
sS'gov'
p330
F261.94636545121494
sS'issue'
p331
F232.56109439239864
sS'correct'
p332
F241.80475854367833
sS'eagle'
p333
F155.6855583677908
sS'ece'
p334
F364.27881672501462
sS'qur'
p335
F230.97138574739668
sS'exodus'
p336
F140.56045402787441
sS'belief'
p337
F359.73624546682595
sS'rambo'
p338
F169.53605336682736
sS'written'
p339
F183.48894254836168
sS'frank'
p340
F556.6722369880016
sS'1993'
p341
F195.79638460484395
sS'eternal'
p342
F158.62302173322084
sS'given'
p343
F287.22955571122435
sS'free'
p344
F298.09302525504648
sS'standard'
p345
F191.06259616186344
sS'reason'
p346
F353.03076417778993
sS'california'
p347
F212.88246401399977
sS'asd'
p348
F485.07770908291656
sS'ask'
p349
F224.62374718765264
sS'org'
p350
F187.39105479219134
sS'keith'
p351
F468.68356749865791
sS'jbrown'
p352
F150.78208958043621
sS'care'
p353
F199.98808885601935
sS'definition'
p354
F266.29761190037055
sS'uiuc'
p355
F474.17903873633412
sS'couldn'
p356
F144.7648790818325
sS'g'
F244.07401985736885
sS'created'
p357
F235.65319941135735
sS'argument'
p358
F365.81963564959079
sS'prophet'
p359
F148.79648231289059
sS'could'
p360
F369.55524184221201
sS'mac'
p361
F228.32620357601485
sS'keep'
p362
F215.72061952187585
sS'thing'
p363
F349.82188385886997
sS'att'
p364
F268.60318763603084
sS'000'
p365
F161.2568250390145
sS'place'
p366
F218.11751529434113
sS'isn'
p367
F320.65867316094517
sS'kempmp'
p368
F146.79088140414555
sS'isc'
p369
F218.94807542688486
sS'cnsvax'
p370
F158.99559921814807
sS'austin'
p371
F170.04703901215777
sS'think'
p372
F239.63920385454418
sS'first'
p373
F346.19148288940994
sS'feed'
p374
F140.6499531545156
sS'already'
p375
F176.93571536579867
sS'feel'
p376
F219.89482619422836
sS'misc'
p377
F354.58702109111698
sS'number'
p378
F236.14138050051039
sS'jesus'
p379
F368.74697999849423
sS'koresh'
p380
F169.61787453015978
sS'done'
p381
F208.5396785319335
sS'another'
p382
F325.45509669966651
sS'wasn'
p383
F162.29679930083591
sS'force'
p384
F191.06259616186344
sS'lippard'
p385
F153.28566712034751
sS'open'
p386
F138.56012471218691
sS'anyone'
p387
F318.5628658042346
sS'guess'
p388
F201.06448994477586
sS'necessarily'
p389
F205.58589385152234
sS'reference'
p390
F207.06873788931293
sS'atheists'
p391
F368.18922039813822
sS'bears'
p392
F162.29679930083591
sS'system'
p393
F377.84732264287015
sS'least'
p394
F288.97117511974801
sS'osrhe'
p395
F379.61295060027879
sS'2'
F332.89911534351825
sS'observations'
p396
F205.08495460086647
sS'statement'
p397
F304.27379647956377
sS'john'
p398
F284.6709077774853
sS'uka'
p399
F138.56012471218691
sS'murder'
p400
F242.38614796596755
sS'way'
p401
F368.13978662354231
sS'rest'
p402
F223.97225284596044
sS'exactly'
p403
F204.09100303721419
sS'mnemosyne'
p404
F152.78234595125355
sS'part'
p405
F291.38045273598135
sS'western'
p406
F196.43057682652602
sS'punishment'
p407
F209.53384191180476
sS'attempt'
p408
F144.7648790818325
sS'believe'
p409
F360.82078837605337
sS'haven'
p410
F250.03726657842725
sS'fred'
p411
F193.27664540218544
sS'population'
p412
F160.42342462426487
sS'11'
p413
F258.5855491964931
sS'king'
p414
F274.94017129540941
sS'13'
p415
F269.28410902564593
sS'b'
F353.81242123590545
sS'15'
p416
F352.76461280274015
sS'14'
p417
F266.20029683553736
sS'17'
p418
F274.33982857448797
sS'16'
p419
F381.6845506774273
sS'19'
p420
F292.15647767242569
sS'18'
p421
F278.12222276727886
sS'likely'
p422
F165.99123228884216
sS'1993apr19'
p423
F155.6855583677908
sS'csugrad'
p424
F170.04703901215777
sS'matter'
p425
F282.76036477226728
sS'r'
F247.04426975622883
sS'magnesium'
p426
F324.45751605765423
sS'light'
p427
F152.78234595125355
sS'agate'
p428
F202.58391856914861
sS'false'
p429
F236.64846752658445
sS'wupost'
p430
F231.84868165675513
sS'modern'
p431
F156.62279306248197
sS'mind'
p432
F240.14183178109747
sS'halat'
p433
F382.22912543701165
sS'interpretation'
p434
F149.78661367769953
sS'talking'
p435
F237.65325988328024
sS'say'
p436
F160.76598509283471
sS'solntze'
p437
F359.7788882662523
sS'psilink'
p438
F219.38999489715891
sS'need'
p439
F286.23280951498174
sS'seen'
p440
F236.9022031191445
sS'seem'
p441
F305.49699597813918
sS'obviously'
p442
F186.14820258529446
sS'saw'
p443
F144.7648790818325
sS'mozumder'
p444
F167.81288488852957
sS'kevin'
p445
F160.93737620793505
sS'ray'
p446
F150.09489957068891
sS'0400'
p447
F138.56012471218691
sS'nott'
p448
F282.09332639617435
sS'xref'
p449
F351.25476107478204
sS'form'
p450
F203.57779606908554
sS'person'
p451
F316.89723809439357
sS'self'
p452
F215.08909872773802
sS'able'
p453
F217.12296987591182
sS'gravity'
p454
F186.20576072459315
sS'note'
p455
F222.62367331385857
sS'also'
p456
F365.39967462263002
sS'best'
p457
F236.9022031191445
sS'lis'
p458
F235.65319941135735
sS'objective'
p459
F386.24795474006794
sS'wonder'
p460
F171.40647426061747
sS'mit'
p461
F172.60391948295307
sS'd012s658'
p462
F346.71651602679088
sS'sure'
p463
F318.41210384785313
sS'ins'
p464
F188.44530032402969
sS'sura'
p465
F333.32602045785546
sS'bruce'
p466
F142.65026830374359
sS'quote'
p467
F213.01670929193881
sS'object'
p468
F180.11258744500404
sS'systems'
p469
F202.58391856914861
sS'psuvm'
p470
F284.87987863781342
sS'said'
p471
F367.87436223336834
sS'germany'
p472
F263.18848687992556
sS'claims'
p473
F260.8630450468612
sS'nothing'
p474
F338.95615449727188
sS'america'
p475
F142.71805059948957
sS'conlon'
p476
F144.7648790818325
sS'morality'
p477
F362.77752719429867
sS'subjective'
p478
F201.06448994477586
sS'cause'
p479
F237.16626457838672
sS'especially'
p480
F167.81288488852957
sS'sgiblab'
p481
F208.5396785319335
sS'considered'
p482
F201.06448994477586
sS'clear'
p483
F218.11751529434113
sS'sometimes'
p484
F160.42342462426487
sS'm'
F319.77107103823164
sS'error'
p485
F150.78208958043621
sS'left'
p486
F142.71805059948957
sS'physics'
p487
F231.84868165675513
sS'08'
p488
F185.15527813585751
sS'fact'
p489
F371.90964458545614
sS'laws'
p490
F223.93894160462406
sS'saying'
p491
F335.11724756247054
sS'arromdee'
p492
F232.58195919088629
sS'show'
p493
F253.3071825186023
sS'text'
p494
F190.86557774022816
sS'anyway'
p495
F181.80811665817168
sS'religions'
p496
F233.03396035077805
sS'earth'
p497
F281.30915544769795
sS'abo'
p498
F167.45901061743814
sS'find'
p499
F322.27816140923278
sS'ksu'
p500
F371.73804923576398
sS'access'
p501
F147.79746635966603
sS'copy'
p502
F149.82277618633185
sS'based'
p503
F284.0543313475755
sS'knowledge'
p504
F216.30724334084979
sS'gulf'
p505
F140.6499531545156
sS'explain'
p506
F254.55184234411453
sS'3'
F299.51623990322338
sS'penalty'
p507
F169.61787453015978
sS'going'
p508
F256.75926674538334
sS'black'
p509
F209.99885578816958
sS'pretty'
p510
F191.67977024299117
sS'money'
p511
F140.6499531545156
sS'theism'
p512
F294.91416897808517
sS'rice'
p513
F335.79023732480101
sS'interested'
p514
F142.71805059948957
sS'hope'
p515
F193.67989199969719
sS'petri'
p516
F148.79648231289059
sS'1993apr3'
p517
F148.79115913563805
sS'1993apr5'
p518
F197.98797926817903
sS'get'
p519
F367.45475671533751
sS'dg'
p520
F248.09555475551832
sS'de'
p521
F425.36975511935077
sS'stop'
p522
F138.56012471218691
sS'kind'
p523
F193.27664540218544
sS'bear'
p524
F280.49299789777604
sS'watson'
p525
F151.70057334506794
sS'cannot'
p526
F323.69350788789097
sS'instance'
p527
F174.935552581536
sS'tammy'
p528
F183.48894254836168
sS'words'
p529
F265.18852694306509
sS'new'
p530
F328.40172148391673
sS'sse'
p531
F144.7648790818325
sS'saturn'
p532
F350.08391677000139
sS'evolution'
p533
F307.29995971142904
sS'countries'
p534
F140.6499531545156
sS'h'
F195.55767257199679
sS'princeton'
p535
F174.43418206364188
sS'hole'
p536
F160.42342462426487
sS'taxes'
p537
F154.69487531814673
sS'bad'
p538
F298.29216557241494
sS'stuff'
p539
F208.5396785319335
sS'common'
p540
F163.28812863541245
sS'ohio'
p541
F560.40955168654443
sS'valid'
p542
F156.6951127012376
sS'wrote'
p543
F333.02432101542172
sS'view'
p544
F274.28610707335088
sS'user'
p545
F140.6499531545156
sS'set'
p546
F242.59302165251299
sS'questions'
p547
F224.62374718765264
sS'exists'
p548
F264.08907579333913
sS'ken'
p549
F138.56012471218691
sS'bozo'
p550
F189.62459495011998
sS'humans'
p551
F243.01928478693301
sS'sex'
p552
F219.76624442947977
sS'culture'
p553
F153.74868305869811
sS'see'
p554
F364.96121978685693
sS'computer'
p555
F230.56102903548447
sS'zaphod'
p556
F358.52995560177948
sS'result'
p557
F165.99123228884216
sS'existence'
p558
F332.41769241905098
sS'terms'
p559
F171.88224066885522
sS'eitech'
p560
F294.75567913651997
sS'alternative'
p561
F138.56012471218691
sS'sei'
p562
F365.15181127349763
sS'creationism'
p563
F205.00260068148751
sS'02'
p564
F245.38592185640351
sS'03'
p565
F221.89490327977799
sS'00'
p566
F248.72466232117202
sS'01'
p567
F229.65389457640146
sS'06'
p568
F148.79648231289059
sS'07'
p569
F153.73860114083692
sS'04'
p570
F199.45057173932867
sS'05'
p571
F174.17109481320807
sS'away'
p572
F230.56102903548447
sS'09'
p573
F156.62279306248197
sS'please'
p574
F301.68893842509976
sS'tend'
p575
F144.7648790818325
sS'state'
p576
F458.1481948724749
sS'won'
p577
F186.80733035759181
sS'various'
p578
F167.81288488852957
sS'probably'
p579
F263.07711824789374
sS'neither'
p580
F171.40647426061747
sS'reading'
p581
F191.67977024299117
sS'nntp'
p582
F316.7498951850456
sS'supposed'
p583
F172.39849542409684
sS'24'
p584
F225.31041663022179
sS'college'
p585
F150.78208958043621
sS'muslim'
p586
F265.14859161992439
sS'europa'
p587
F364.27881672501462
sS'anti'
p588
F160.42342462426487
sS'nature'
p589
F261.88362693978911
sS'okcforum'
p590
F296.30163595322296
sS'weak'
p591
F174.935552581536
sS'however'
p592
F323.28804116812069
sS'killing'
p593
F175.92782051983778
sS'harvard'
p594
F399.68656972848709
sS'hypothesis'
p595
F150.79674904357552
sS'premise'
p596
F158.53219735358434
sS'20'
p597
F374.09449387531038
sS'motto'
p598
F196.29718783753094
sS'come'
p599
F296.30163595322296
sS'tue'
p600
F255.65965268038582
sS'jon'
p601
F348.89207482335183
sS'david'
p602
F253.17859861375695
sS'c'
F276.38464265417247
sS'last'
p603
F202.05829154466045
sS'many'
p604
F366.77008746206974
sS'wed'
p605
F214.30715917001658
sS'according'
p606
F201.06448994477586
sS'agree'
p607
F336.13635664381019
sS'etc'
p608
F303.48470591572533
sS'admit'
p609
F156.62279306248197
sS'context'
p610
F210.99308651466214
sS'logic'
p611
F237.65325988328024
sS'argue'
p612
F197.4241389988909
sS'livesey'
p613
F565.13807683349773
sS'asked'
p614
F176.67653490212126
sS'comes'
p615
F180.11258744500404
sS'otherwise'
p616
F148.79648231289059
sS'among'
p617
F176.67653490212126
sS'co'
p618
F417.50673354367251
sS'point'
p619
F376.8012576565589
sS'cc'
p620
F369.33103435812205
sS'cb'
p621
F173.31033856037089
sS'ca'
p622
F339.57060373528117
sS'uunet'
p623
F367.86814277087063
sS'simply'
p624
F278.06710126486502
sS'healy'
p625
F148.79648231289059
sS'church'
p626
F236.92435563177963
sS'hitler'
p627
F142.71805059948957
sS'speak'
p628
F176.67653490212126
sS'code'
p629
F140.6499531545156
sS'x'
F384.39860180515052
sS'raise'
p630
F142.71805059948957
sS'basis'
p631
F264.18463082603995
sS'fri'
p632
F275.22187921470356
sS'political'
p633
F255.65965268038582
sS'three'
p634
F180.47635270229799
sS'mark'
p635
F252.31136080781084
sS'olivea'
p636
F150.78208958043621
sS'defined'
p637
F167.81288488852957
sS'difference'
p638
F190.06938356179162
sS'much'
p639
F369.09517153138268
sS'warwick'
p640
F188.49851802292244
sS'technical'
p641
F140.6499531545156
sS'tried'
p642
F150.78208958043621
sS'po'
p643
F384.79672329451211
sS'define'
p644
F197.4241389988909
sS'followup'
p645
F205.58589385152234
sS'life'
p646
F349.1832798484827
sS'mcl'
p647
F180.05828587264233
sS'bmd'
p648
F258.92662261197563
sS'39'
p649
F141.63923859467994
sS'andrew'
p650
F375.68577186349034
sS'netcom'
p651
F242.26589015454587
sS'else'
p652
F261.07707691294002
sS'language'
p653
F148.79648231289059
sS'whatever'
p654
F230.25850929940458
sS'38'
p655
F168.80464300560217
sS'understand'
p656
F289.83228639028562
sS'atlanta'
p657
F246.22895165164832
sS'evidence'
p658
F385.24355645252979
sS'present'
p659
F162.29679930083591
sS'case'
p660
F345.7929801386544
sS'east'
p661
F184.5941733773825
sS'look'
p662
F300.10954929221782
sS'ousrvr'
p663
F165.14411156927162
sS'bill'
p664
F343.35384778375902
sS'value'
p665
F348.75034129356175
sS'n'
F203.41654247606243
sS'33'
p666
F186.80733035759181
sS'near'
p667
F359.49836258625822
sS'suppose'
p668
F162.42363724998131
sS'behavior'
p669
F249.63574015122671
sS'country'
p670
F160.42342462426487
sS'situation'
p671
F213.87682487634586
sS'bb3'
p672
F254.55184234411453
sS'31'
p673
F173.17894832421533
sS'30'
p674
F185.15527813585751
sS'timmbake'
p675
F180.05828587264233
sS've'
p676
F351.37028626992299
sS'century'
p677
F146.79088140414555
sS'almost'
p678
F214.30715917001658
sS'evelyn'
p679
F144.7648790818325
sS'rit'
p680
F218.94807542688486
sS'ans'
p681
F306.00536701260461
sS'thus'
p682
F197.4241389988909
sS'kmr4'
p683
F382.63972059847964
sS'good'
p684
F382.09323519152269
sS'vt'
p685
F194.33947315675175
sS'35'
p686
F162.29679930083591
sS'twisto'
p687
F202.98532525740433
sS'claimed'
p688
F144.7648790818325
sS'technology'
p689
F211.44640641184193
sS'i3150101'
p690
F370.53891233018862
sS'different'
p691
F346.84352893391025
sS'perhaps'
p692
F304.27379647956377
sS'things'
p693
F375.05017335759482
sS'make'
p694
F373.91529032326849
sS'government'
p695
F154.74834160540621
sS'mimsy'
p696
F191.06259616186344
sS'clearly'
p697
F160.42342462426487
sS'matthew'
p698
F238.90226245540904
sS'fido'
p699
F477.48546438417299
sS'arguments'
p700
F246.20120869901791
sS'nice'
p701
F146.79088140414555
sS'hens'
p702
F144.7648790818325
sS'inc'
p703
F248.88743592538819
sS'events'
p704
F166.15283264656006
sS'higher'
p705
F156.62279306248197
sS'used'
p706
F310.48149951830146
sS'du'
p707
F211.11771444201463
sS'horus'
p708
F430.22694341988813
sS'lie'
p709
F165.56464738243974
sS'upon'
p710
F236.39473423826016
sS'effect'
p711
F152.7480950023608
sS'evil'
p712
F209.18580908798873
sS'hand'
p713
F202.55203871314779
sS'action'
p714
F166.15283264656006
sS'sandvik'
p715
F559.76293508964147
sS'portal'
p716
F230.62035037649116
sS'purpose'
p717
F167.81288488852957
sS'student'
p718
F154.69487531814673
sS'wpd'
p719
F359.7788882662523
sS'ira'
p720
F152.7480950023608
sS'nation'
p721
F153.73860114083692
sS'thoughts'
p722
F199.53256290035219
sS'early'
p723
F141.63923859467994
sS'rules'
p724
F163.28812863541245
sS'whole'
p725
F245.19671766094876
sS'thu'
p726
F196.43057682652602
sS'well'
p727
F366.07253513377691
sS'kyle'
p728
F233.47960601172886
sS'darkside'
p729
F296.30163595322296
sS'crabapple'
p730
F366.68694100408925
sS'thought'
p731
F281.76372800942835
sS'unm'
p732
F181.53170842172651
sS'cco'
p733
F245.38592185640351
sS'without'
p734
F320.60589624172434
sS'position'
p735
F255.54773273963292
sS'model'
p736
F158.77381049836151
sS'chemistry'
p737
F152.78234595125355
sS'know'
p738
F320.70373641073246
sS'opinions'
p739
F224.62374718765264
sS'less'
p740
F211.99894593429656
sS'gods'
p741
F244.63046415083761
sS'accurate'
p742
F148.79648231289059
sS'newton'
p743
F217.12296987591182
sS'actions'
p744
F215.30158292324975
sS'ideas'
p745
F142.71805059948957
sS'verses'
p746
F164.15263443443223
sS'sources'
p747
F143.68401967293829
sS'kill'
p748
F233.8487457383695
sS'thanks'
p749
F140.6499531545156
sS'human'
p750
F310.37851548463874
sS'world'
p751
F373.92887271354272
sS'facts'
p752
F178.40213553301729
sS'love'
p753
F239.24714343209118
sS'yes'
p754
F315.2095724799795
sS'illinois'
p755
F167.81288488852957
sS'yet'
p756
F310.48149951830146
sS'death'
p757
F271.33365348146754
sS'p00261'
p758
F183.34105671344557
sS'thinking'
p759
F210.08702666430224
sS'bnr'
p760
F276.90666745426415
sS'seems'
p761
F339.02765334841644
sS'sgigate'
p762
F201.06448994477586
sS'killed'
p763
F159.52321515623163
sS'simple'
p764
F212.44070294849712
sS'book'
p765
F360.04998643303304
sS'yoyo'
p766
F210.5397708118
sS'4'
F273.32875387471364
sS'innocent'
p767
F183.48894254836168
sS'psu'
p768
F279.70144098118709
sS'wesleyan'
p769
F209.68331075687036
sS'take'
p770
F345.57558496258827
sS'real'
p771
F324.69597906092923
sS'bil'
p772
F230.56102903548447
sS'around'
p773
F241.80475854367833
sS'gregg'
p774
F246.56183917055313
sS'read'
p775
F365.28243472562457
sS'big'
p776
F173.17894832421533
sS'possible'
p777
F308.94893943551932
sS'judgement'
p778
F142.65026830374359
sS'game'
p779
F139.54917551453178
sS'messiah'
p780
F138.56012471218691
sS'mon'
p781
F196.43057682652602
sS'judge'
p782
F166.98285226950864
sS'using'
p783
F222.25928669094051
sS'bit'
p784
F187.80035353779834
sS'objectively'
p785
F165.99123228884216
sS'buphy'
p786
F221.26456841387008
sS'59'
p787
F211.99894593429656
sS'd'
F372.04542543358127
sS'bobby'
p788
F199.53256290035219
sS'54'
p789
F160.42342462426487
sS'56'
p790
F140.6499531545156
sS'51'
p791
F156.62279306248197
sS'50'
p792
F181.80811665817168
sS'server'
p793
F196.43057682652602
sS'ignore'
p794
F169.61787453015978
sS'michael'
p795
F148.79648231289059
sS'either'
p796
F286.23280951498174
sS'always'
p797
F257.85075116829961
sS'become'
p798
F179.70033591838927
sS'mr'
p799
F194.86018914176245
sS'bobbe'
p800
F254.55184234411453
sS'right'
p801
F366.48426812844923
sS'old'
p802
F214.30715917001658
sS'often'
p803
F263.13280192800255
sS'deal'
p804
F195.85366734088123
sS'tells'
p805
F148.79115913563805
sS'ux1'
p806
F147.88809267456301
sS'creation'
p807
F186.14820258529446
sS'back'
p808
F282.84985261924868
sS'10'
p809
F237.89751559622741
sS'oh'
p810
F152.7480950023608
sS'thread'
p811
F188.80746262222723
sS'learn'
p812
F173.17894832421533
sS'wwc'
p813
F345.87273744879815
sS'w165w'
p814
F316.16565234007783
sS'52'
p815
F177.66892059062249
sS'reasons'
p816
F169.61787453015978
sS'basic'
p817
F140.6499531545156
sS'uoknor'
p818
F267.31875871115301
sS'ico'
p819
F344.787358200114
sS'decision'
p820
F176.67653490212126
sS'though'
p821
F279.99812280142658
sS'legal'
p822
F142.71805059948957
sS'everything'
p823
F240.36739760065507
sS'bogus'
p824
F196.43057682652602
sS'assuming'
p825
F140.6499531545156
sS'truth'
p826
F354.81831600664714
sS'power'
p827
F219.12305038732035
sS'mccullou'
p828
F144.7648790818325
sS'deleted'
p829
F208.5396785319335
sS'use'
p830
F322.04687692242288
sS'bu'
p831
F464.48445839661144
sS'host'
p832
F351.57123486341607
sS'usd'
p833
F153.05471660812992
sS'although'
p834
F191.67977024299117
sS'bs'
p835
F385.99618059879111
sS'post'
p836
F309.08498095761036
sS'dcs'
p837
F180.47635270229799
sS'dead'
p838
F148.79648231289059
sS'faith'
p839
F349.3458862764117
sS'works'
p840
F176.67653490212126
sS'ok'
p841
F175.17911631803386
sS'origins'
p842
F347.08890039122252
sS'getting'
p843
F167.99142383770734
sS'mips'
p844
F144.7648790818325
sS'freedom'
p845
F201.5326697311111
sS'accepted'
p846
F148.79648231289059
sS'o'
F367.42851475467154
sS'important'
p847
F234.39467259775984
sS'genocide'
p848
F193.27664540218544
sS'oz'
p849
F144.56481379966124
sS'horizon'
p850
F144.7648790818325
sS'act'
p851
F202.55203871314779
sS'videocart'
p852
F148.06828794393724
sS'fallacy'
p853
F229.95599223084494
sS'mangoe'
p854
F193.27664540218544
sS'soc'
p855
F210.70110786424311
sS'cambridge'
p856
F148.79648231289059
sS'statements'
p857
F228.95090745590716
sS'within'
p858
F191.67977024299117
sS'washington'
p859
F214.9921747320036
sS'sol'
p860
F165.99123228884216
sS'due'
p861
F166.98285226950864
sS'daffy'
p862
F177.61164869115041
sS'pooh'
p863
F173.17894832421533
sS'jews'
p864
F167.81288488852957
sS'wam'
p865
F161.56048509865084
sS'story'
p866
F154.69487531814673
sS'emory'
p867
F173.17894832421533
sS'aren'
p868
F191.67977024299117
sS'spac'
p869
F140.56045402787441
sS'howland'
p870
F305.4962066681577
sS'support'
p871
F259.93019270997945
sS'question'
p872
F351.89791126851156
sS'long'
p873
F295.58682289782428
sS'christianity'
p874
F261.00564487586308
sS'start'
p875
F202.58391856914861
sS'newsreader'
p876
F227.95592420641054
sS'pasadena'
p877
F167.81288488852957
sS'lot'
p878
F216.71510477866846
sS'ed'
p879
F169.01753665770764
sS'war'
p880
F293.04558994371024
sS'pww'
p881
F176.76228898507358
sS'head'
p882
F144.7648790818325
sS'iastate'
p883
F187.99765538752098
sS'enough'
p884
F258.93417150383243
sS'jewish'
p885
F167.99142383770734
sS'batman'
p886
F257.7261941416225
sS'hp'
p887
F193.27664540218544
sS'hq'
p888
F153.3207941893358
sS'idea'
p889
F281.00158701388978
sS'sdd'
p890
F188.44530032402969
sS'christ'
p891
F141.63923859467994
sS'hear'
p892
F155.6855583677908
sS'authority'
p893
F152.7480950023608
sS'indiana'
p894
F203.19730685325069
sS'line'
p895
F151.7724119591484
sS'trying'
p896
F240.72665002479215
sS'true'
p897
F368.35920919749503
sS'observation'
p898
F140.6499531545156
sS'wisc'
p899
F265.94780160130443
sS'made'
p900
F333.12953866988806
sS'rawlins'
p901
F174.935552581536
sS'ucs'
p902
F158.62302173322084
sS'stanford'
p903
F274.08896043676464
sS'whether'
p904
F326.33952686384299
sS'wish'
p905
F150.78208958043621
sS'ursa'
p906
F222.92446321249412
sS'j'
F185.15527813585751
sS'us'
p907
F381.70050993767029
sS'cis'
p908
F334.63012217741004
sS'cruel'
p909
F176.93571536579867
sS'mcsun'
p910
F156.62279306248197
sS'uk'
p911
F340.55150447125402
sS'calpoly'
p912
F149.78661367769953
sS'distribution'
p913
F293.04558994371024
sS'similar'
p914
F185.48908259261609
sS'called'
p915
F216.30724334084979
sS'sort'
p916
F193.27664540218544
sS'ac'
p917
F402.53973015799943
sS'later'
p918
F156.6951127012376
sS'1993apr16'
p919
F172.64328793966146
sS'certain'
p920
F206.57991770839973
sS'mike'
p921
F219.50893657784491
sS'doesn'
p922
F353.20880893330013
sS'general'
p923
F231.84868165675513
sS'ap'
p924
F425.37632982474707
sS'scientific'
p925
F223.61844680125168
sS'salem'
p926
F148.00683317584367
sS'exist'
p927
F336.64050777866362
sS'predictions'
p928
F159.52321515623163
sS'cbnewsj'
p929
F164.49794846408085
sS'eric'
p930
F191.67977024299117
sS'worse'
p931
F160.42342462426487
sS'physical'
p932
F178.40213553301729
sS'write'
p933
F162.29679930083591
sS'beauchaine'
p934
F221.26456841387008
sS'biblical'
p935
F144.7648790818325
sS'48'
p936
F162.29679930083591
sS'49'
p937
F140.6499531545156
sS'46'
p938
F150.78208958043621
sS'47'
p939
F144.7648790818325
sS'44'
p940
F164.15263443443223
sS'peace'
p941
F292.85583107072648
sS'generally'
p942
F150.78208958043621
sS'40'
p943
F155.6855583677908
sS'reality'
p944
F254.31140788746018
sS'tin'
p945
F181.80811665817168
sS'caltech'
p946
F564.83309205624266
sS'5'
F273.30921994784069
sS'fs7'
p947
F364.27881672501462
sS'department'
p948
F186.80733035759181
sS'mass'
p949
F140.56045402787441
sS'conclusion'
p950
F215.72061952187585
sS'poor'
p951
F139.50032621265709
sS'phoenix'
p952
F156.62279306248197
sS'problems'
p953
F176.67653490212126
sS'stay'
p954
F144.7648790818325
sS'meaning'
p955
F195.27676393334755
sS'muslims'
p956
F220.13982074174973
sS'individual'
p957
F152.7480950023608
sS'au'
p958
F464.14403258434533
sS'gap'
p959
F617.76411491294846
sS'unless'
p960
F165.99123228884216
sS'christians'
p961
F267.26892853697865
sS'source'
p962
F149.78661367769953
sS'ago'
p963
F138.56012471218691
sS'odwyer'
p964
F144.7648790818325
sS'e'
F358.40800084519714
sS'vice'
p965
F364.21023419953491
sS'assume'
p966
F226.30529714643919
sS'atheist'
p967
F344.80022612653522
sS'reasoning'
p968
F159.65162426163832
sS'rule'
p969
F186.14820258529446
sS'notion'
p970
F162.29679930083591
sS'posts'
p971
F159.52321515623163
sS'2000'
p972
F302.52509649979618
sS'nasa'
p973
F253.17859861375695
sS'u'
F287.5433766081988
sS'time'
p974
F375.75647186402938
sS'bissda'
p975
F145.82394039214336
sS'12'
p976
F265.10916159889172
sS'original'
p977
F235.65319941135735
s.