(dp1
S''
F767.04299717792321
sS'sco'
p2
F245.21690953374352
sS'code'
p3
F372.8007571152894
sS'particular'
p4
F178.40213553301729
sS'focus'
p5
F157.72427125166402
sS'steve'
p6
F192.4548127851964
sS'andre'
p7
F152.78234595125355
sS'manager'
p8
F368.04118491292672
sS'gc'
p9
F180.40228859970901
sS'comments'
p10
F175.17911631803386
sS'epa'
p11
F134.53745906183519
sS'go'
p12
F218.11751529434113
sS'alt'
p13
F164.15263443443223
sS'gl'
p14
F191.335760636055
sS'uuencode'
p15
F190.44542893973917
sS'osf'
p16
F216.14432669063405
sS'patches'
p17
F190.86557774022816
sS'consortium'
p18
F162.29679930083591
sS'tw'
p19
F199.31185879050025
sS'tu'
p20
F345.91068796115781
sS'send'
p21
F320.78769256506405
sS'created'
p22
F156.6951127012376
sS'environment'
p23
F262.1366879514195
sS'xaw'
p24
F138.44842718469727
sS'program'
p25
F325.42984226634684
sS'details'
p26
F141.63923859467994
sS'include'
p27
F366.76669617154937
sS'resources'
p28
F263.02168788551461
sS'brown'
p29
F185.229810352529
sS'fax'
p30
F330.54746691389141
sS'string'
p31
F296.99419979372175
sS'far'
p32
F156.62279306248197
sS'sun3'
p33
F165.87642394793306
sS'void'
p34
F160.53241778298246
sS'faq'
p35
F323.32852858227193
sS'openwindows'
p36
F349.59173558853996
sS'none'
p37
F148.79648231289059
sS'ics'
p38
F147.79746635966603
sS'every'
p39
F177.66892059062249
sS'mps'
p40
F407.86631505178809
sS'uwm'
p41
F208.60440831770495
sS'entries'
p42
F286.23950685417776
sS'word'
p43
F150.87658024215906
sS'trouble'
p44
F136.44808272531995
sS'method'
p45
F151.82771340371229
sS'aix'
p46
F174.17109481320807
sS'level'
p47
F169.61787453015978
sS'issue'
p48
F139.54917551453178
sS'button'
p49
F272.42422006926358
sS'gnu'
p50
F149.82277618633185
sS'list'
p51
F342.52801540666962
sS'ge'
p52
F197.32357415015548
sS'try'
p53
F310.78325008375106
sS'p'
F429.74035324897875
sS'xputimage'
p54
F150.78208958043621
sS'red'
p55
F173.06053398087158
sS'stderr'
p56
F174.935552581536
sS'small'
p57
F181.42556491108272
sS'sleep'
p58
F134.31332273774666
sS'dealy'
p59
F199.5358646633145
sS'work'
p60
F365.7321566282136
sS'tel'
p61
F236.14138050051039
sS'guidelines'
p62
F150.78208958043621
sS'386bsd'
p63
F146.79088140414555
sS'modified'
p64
F135.19278464446441
sS'second'
p65
F203.58473315696867
sS'video'
p66
F159.52321515623163
sS'displays'
p67
F181.10519819260847
sS'dresden'
p68
F286.46511771776807
sS'tufts'
p69
F149.59063532367122
sS'machines'
p70
F220.13982074174973
sS'even'
p71
F267.24425195812756
sS'pipex'
p72
F194.86018914176245
sS'check_io'
p73
F194.86018914176245
sS'elroy'
p74
F155.77807822480753
sS'dept'
p75
F201.06448994477586
sS'sun'
p76
F332.3939550231164
sS'section'
p77
F290.83550528181087
sS'purdue'
p78
F144.84941211906903
sS'netnews'
p79
F182.80083501881006
sS'access'
p80
F245.19671766094876
sS'version'
p81
F370.16550346745703
sS'usenet'
p82
F405.2009904097867
sS'everything'
p83
F156.62279306248197
sS'reply'
p84
F358.68342491153243
sS'public'
p85
F200.52628669469414
sS'widget'
p86
F379.00679383455923
sS'full'
p87
F205.58589385152234
sS'ms'
p88
F322.18185412340029
sS'x386'
p89
F165.56464738243974
sS'never'
p90
F158.62302173322084
sS'commercial'
p91
F220.51441106680642
sS'answers'
p92
F256.39498571284531
sS'beck'
p93
F244.65192339781558
sS'objects'
p94
F160.53241778298246
sS'let'
p95
F213.44649449739077
sS'argv'
p96
F176.67653490212126
sS'address'
p97
F257.46976130212573
sS'100'
p98
F193.5234386813423
sS'quite'
p99
F146.79088140414555
sS'appears'
p100
F152.7480950023608
sS'change'
p101
F272.32508638209964
sS'box'
p102
F227.95592420641054
sS'sending'
p103
F142.71805059948957
sS'remark'
p104
F187.15541420694143
sS'reston'
p105
F313.10776414216383
sS'sender'
p106
F305.98454863582845
sS'ctr'
p107
F194.70059783749005
sS'institute'
p108
F217.12296987591182
sS'32'
p109
F243.21381311051766
sS'k'
F374.99545756798915
sS'30'
p110
F306.54853365421445
sS'37'
p111
F176.67653490212126
sS'36'
p112
F186.80733035759181
sS'35'
p113
F177.66892059062249
sS'34'
p114
F173.17894832421533
sS'products'
p115
F152.7480950023608
sS'action'
p116
F151.82771340371229
sS'changes'
p117
F166.98285226950864
sS'options'
p118
F201.00771121827285
sS'macintosh'
p119
F224.89672644459907
sS'via'
p120
F270.33486757340052
sS'useful'
p121
F164.15263443443223
sS'apr'
p122
F141.31435187264708
sS'win'
p123
F241.15605738423366
sS'app'
p124
F278.46043994199505
sS'terminals'
p125
F163.4511890154003
sS'sgi'
p126
F196.86030457388284
sS'ask'
p127
F171.40647426061747
sS'unix'
p128
F394.30101208068606
sS'printf'
p129
F276.17731211855664
sS'greg'
p130
F152.88038386360392
sS'tools'
p131
F218.73766180535372
sS'gateway'
p132
F261.07707691294002
sS've'
p133
F351.6242671093525
sS'use'
p134
F153.51155267410218
sS'1993apr21'
p135
F140.56045402787441
sS'usc'
p136
F276.17731211855664
sS'stream'
p137
F262.6657146695768
sS'would'
p138
F367.01646458793755
sS'mydisplay'
p139
F162.86048896706157
sS'contains'
p140
F197.4241389988909
sS'two'
p141
F288.36223770265394
sS'next'
p142
F212.16120612189349
sS'handler'
p143
F189.21438617138199
sS'call'
p144
F281.00158701388978
sS'usr'
p145
F388.26259846171354
sS'6'
F387.53184954590728
sS'type'
p146
F307.07624089697657
sS'tell'
p147
F214.30715917001658
sS'athena'
p148
F310.78325008375106
sS'xvoid'
p149
F144.7648790818325
sS'posting'
p150
F327.00329715781089
sS'xview'
p151
F339.70291243883884
sS'r5'
p152
F314.50351757980133
sS'club'
p153
F325.60757361960384
sS'expose'
p154
F218.11751529434113
sS'getting'
p155
F165.99123228884216
sS'distribution'
p156
F355.59536306415919
sS'gtefsd'
p157
F332.62221526127854
sS'phone'
p158
F227.63320443053337
sS'visual'
p159
F345.43209101890341
sS'xmu'
p160
F187.80035353779834
sS'91'
p161
F226.98820768436477
sS'90'
p162
F194.27003740843699
sS'93'
p163
F361.86999836259861
sS'92'
p164
F209.53384191180476
sS'ioccc'
p165
F182.46495647097987
sS'must'
p166
F325.517137905808
sS'mbytes'
p167
F151.28716376880541
sS'utexas'
p168
F336.07378342931128
sS'ma'
p169
F183.48894254836168
sS'ibm'
p170
F292.78923320713147
sS'f'
F391.61769981829781
sS'science'
p171
F272.31282572749944
sS'clients'
p172
F318.20757840919646
sS'mh'
p173
F148.06828794393724
sS'dev'
p174
F207.53305835378313
sS'values'
p175
F189.21438617138199
sS'mwm'
p176
F166.98285226950864
sS'cam'
p177
F263.67104972729015
sS'v'
F396.64915848107415
sS'following'
p178
F338.41716012449348
sS'dec'
p179
F297.46749089662143
sS'root'
p180
F244.63046415083761
sS'example'
p181
F292.21614623962785
sS'control'
p182
F185.15527813585751
sS'tar'
p183
F328.40172148391673
sS'give'
p184
F255.54773273963292
sS'process'
p185
F229.65389457640146
sS'messages'
p186
F146.79088140414555
sS'suggestions'
p187
F191.67977024299117
sS'sample'
p188
F152.7480950023608
sS'xwd'
p189
F143.73824455250232
sS'fprintf'
p190
F230.56102903548447
sS'something'
p191
F289.69015861496172
sS'want'
p192
F359.50089108450265
sS'keep'
p193
F146.79088140414555
sS'ultrix'
p194
F144.7648790818325
sS'information'
p195
F366.87974907844665
sS'gcc'
p196
F207.10974883327697
sS'uka'
p197
F142.71805059948957
sS'end'
p198
F248.88743592538819
sS'eng'
p199
F356.2256629839178
sS'provide'
p200
F181.80811665817168
sS'mouse'
p201
F375.85304965865259
sS'means'
p202
F162.29679930083591
sS'att'
p203
F143.73824455250232
sS'write'
p204
F277.22191274856942
sS'brian'
p205
F197.33168699745616
sS'winners'
p206
F148.79648231289059
sS'irzr17'
p207
F169.61787453015978
sS'answer'
p208
F196.43057682652602
sS'instead'
p209
F239.37199884932329
sS'greatly'
p210
F152.7480950023608
sS'pub'
p211
F313.85629842610905
sS'fr'
p212
F259.12499714578519
sS'paste'
p213
F136.44808272531995
sS'tried'
p214
F218.51433229625704
sS'qdeck'
p215
F150.85832478717253
sS'may'
p216
F316.57964524942315
sS'ltd'
p217
F140.6499531545156
sS'needs'
p218
F160.42342462426487
sS'lab'
p219
F142.71805059948957
sS'xdefaults'
p220
F150.78208958043621
sS'applications'
p221
F323.49702039925415
sS'wrong'
p222
F186.80733035759181
sS'buffer'
p223
F148.79648231289059
sS'fi'
p224
F189.67218149795011
sS'data'
p225
F316.88621914210705
sS'response'
p226
F139.48376907074584
sS'man'
p227
F275.63425970601185
sS'workstation'
p228
F160.42342462426487
sS'boeing'
p229
F144.84941211906903
sS'documentation'
p230
F188.44530032402969
sS'appreciate'
p231
F136.44808272531995
sS'q'
F362.5208727980563
sS'rather'
p232
F158.53219735358434
sS'sh'
p233
F170.60976630333838
sS'green'
p234
F156.96811772427606
sS'mcgill'
p235
F174.17109481320807
sS'ethernet'
p236
F176.93571536579867
sS'order'
p237
F221.89490327977799
sS'se'
p238
F271.4677945531933
sS'oname'
p239
F270.33731202894563
sS'anonymous'
p240
F201.06448994477586
sS'office'
p241
F146.79088140414555
sS'xlib'
p242
F332.33269848623803
sS'elin'
p243
F189.21673986564542
sS'move'
p244
F177.66892059062249
sS'installed'
p245
F179.39463543907698
sS'course'
p246
F217.12296987591182
sS'including'
p247
F247.7289851057138
sS'looks'
p248
F140.6499531545156
sS'keyboard'
p249
F266.02724752612312
sS'uva'
p250
F148.79115913563805
sS'still'
p251
F236.9022031191445
sS'pointer'
p252
F167.81288488852957
sS'24'
p253
F314.82761358487295
sS'pixmap'
p254
F240.94078681976515
sS'26'
p255
F251.90059234816641
sS'27'
p256
F249.72903551757878
sS'20'
p257
F356.53678755710962
sS'21'
p258
F336.64050777866362
sS'22'
p259
F331.77461314043677
sS'23'
p260
F327.13662615409555
sS'personal'
p261
F144.7648790818325
sS'll'
p262
F248.72466232117202
sS'jim'
p263
F142.6538547314446
sS'28'
p264
F281.84643575389993
sS'29'
p265
F270.32845944990135
sS'actually'
p266
F202.58391856914861
sS'better'
p267
F233.12653112359874
sS'whether'
p268
F163.28812863541245
sS'offers'
p269
F183.48894254836168
sS'systems'
p270
F335.12846687646982
sS'reilly'
p271
F199.45057173932867
sS'routines'
p272
F140.6499531545156
sS'mail'
p273
F377.88633116091842
sS'main'
p274
F196.29718783753094
sS'might'
p275
F234.39467259775984
sS'pixel'
p276
F199.98808885601935
sS'408'
p277
F190.06938356179162
sS'non'
p278
F267.19663531226882
sS'someone'
p279
F218.11751529434113
sS'return'
p280
F311.08500108436868
sS'inria'
p281
F138.41166046933262
sS'noc'
p282
F365.9484924811394
sS'das'
p283
F364.18656111823952
sS'feature'
p284
F140.6499531545156
sS'echo'
p285
F290.47610445941245
sS'day'
p286
F168.89235892880458
sS'term'
p287
F159.84455398619005
sS'document'
p288
F136.44808272531995
sS'name'
p289
F361.64090930968086
sS'openlook'
p290
F158.53219735358434
sS'uknet'
p291
F220.83274610681508
sS'always'
p292
F180.11258744500404
sS'university'
p293
F367.01851731295562
sS'fonts'
p294
F360.7280912962209
sS'l'
F421.42204763625352
sS'olit'
p295
F186.14820258529446
sS'kpc'
p296
F168.67254483344928
sS'mode'
p297
F193.67989199969719
sS'x11'
p298
F387.49879573763644
sS'gui'
p299
F174.935552581536
sS'domain'
p300
F167.81288488852957
sS'ee'
p301
F140.6499531545156
sS'michael'
p302
F200.48414430490351
sS'interviews'
p303
F147.88809267456301
sS'product'
p304
F175.92782051983778
sS'mcsun'
p305
F183.48894254836168
sS'static'
p306
F172.39849542409684
sS'year'
p307
F256.46784765378573
sS'navy'
p308
F154.86426767178656
sS'laboratory'
p309
F138.56012471218691
sS'programmer'
p310
F192.50271175571118
sS'summary'
p311
F212.88246401399977
sS'event'
p312
F297.65221178546597
sS'special'
p313
F179.39463543907698
sS'really'
p314
F236.64846752658445
sS'ftp'
p315
F391.44305380494859
sS'network'
p316
F309.78597241128671
sS'space'
p317
F260.00959225796674
sS'xv'
p318
F295.76833702733012
sS'robert'
p319
F154.86426767178656
sS'since'
p320
F280.84982176704926
sS'rx'
p321
F195.17636053009608
sS'research'
p322
F234.39467259775984
sS'looking'
p323
F285.46179176724911
sS're'
p324
F323.78049685643975
sS'7'
F382.75928982243551
sS'internet'
p325
F366.06994294179538
sS'got'
p326
F230.25850929940458
sS'gov'
p327
F395.92314572349829
sS'supports'
p328
F196.43057682652602
sS'correct'
p329
F180.11258744500404
sS'math'
p330
F213.01670929193881
sS'ece'
p331
F327.85018001381496
sS'defaults'
p332
F213.63102056632434
sS'intrinsics'
p333
F270.33486757340052
sS'ast'
p334
F171.40647426061747
sS'args'
p335
F204.09100303721419
sS'given'
p336
F202.58391856914861
sS'free'
p337
F275.25579989219659
sS'standard'
p338
F281.76372800942835
sS'reason'
p339
F165.14411156927162
sS'included'
p340
F212.88246401399977
sS'put'
p341
F255.65965268038582
sS'org'
p342
F304.69548056414641
sS'card'
p343
F216.71510477866846
sS'r4'
p344
F263.99559167317449
sS'advance'
p345
F244.20115555021721
sS'uiuc'
p346
F178.70902247131326
sS'g'
F391.99755877650057
sS'r3'
p347
F172.39849542409684
sS'could'
p348
F330.51677641015061
sS'script'
p349
F146.79088140414555
sS'programming'
p350
F245.19671766094876
sS'mac'
p351
F136.44808272531995
sS'david'
p352
F292.95081559955207
sS'thing'
p353
F194.86018914176245
sS'int'
p354
F297.26388347721604
sS'place'
p355
F178.40213553301729
sS'isn'
p356
F173.17894832421533
sS'w'
F390.11729442838231
sS'wg2'
p357
F160.53241778298246
sS'think'
p358
F300.54336005472288
sS'first'
p359
F335.62906436560564
sS'feed'
p360
F150.78208958043621
sS'major'
p361
F142.71805059948957
sS'already'
p362
F216.71510477866846
sS'features'
p363
F222.62367331385857
sS'xm'
p364
F208.1412089742395
sS'question'
p365
F273.28968703582376
sS'variables'
p366
F160.42342462426487
sS'misc'
p367
F314.50810282986276
sS'number'
p368
F338.60565702854171
sS'one'
p369
F347.91329329491128
sS'cursor'
p370
F270.32743322058445
sS'sunview'
p371
F165.14411156927162
sS'tvtwm'
p372
F139.54917551453178
sS'done'
p373
F260.00959225796674
sS'long'
p374
F260.9342141721375
sS'another'
p375
F277.17380743608447
sS'says'
p376
F134.31332273774666
sS'open'
p377
F372.7230048585144
sS'xt'
p378
F341.76806450176281
sS'size'
p379
F324.48268499372978
sS'little'
p380
F184.83083651298838
sS'width'
p381
F173.68604837457877
sS'top'
p382
F264.96230580871998
sS'makefile'
p383
F166.15283264656006
sS'system'
p384
F366.38347902165066
sS'least'
p385
F186.80733035759181
sS'colormaps'
p386
F134.31332273774666
sS'anyone'
p387
F334.63012217741004
sS'needed'
p388
F176.67653490212126
sS'allows'
p389
F150.78208958043621
sS'tom'
p390
F164.15263443443223
sS'widgets'
p391
F335.00009978170777
sS'john'
p392
F218.51433229625704
sS'bits'
p393
F146.68365185317325
sS'newsserver'
p394
F142.74451984550959
sS'ira'
p395
F142.71805059948957
sS'shell'
p396
F275.50595848007771
sS'lot'
p397
F183.48894254836168
sS'tool'
p398
F176.67653490212126
sS'part'
p399
F277.41860982621995
sS'copy'
p400
F258.75931081261228
sS'ncd'
p401
F138.44842718469727
sS'haven'
p402
F201.06448994477586
sS'specify'
p403
F138.56012471218691
sS'undefined'
p404
F173.17894832421533
sS'11'
p405
F328.58589980409641
sS'10'
p406
F360.19843989451914
sS'13'
p407
F330.94310624036035
sS'b'
F393.29005275725052
sS'15'
p408
F361.64090930968086
sS'14'
p409
F336.63914477455768
sS'17'
p410
F346.39781972555591
sS'16'
p411
F377.4302060203309
sS'19'
p412
F375.02388024525601
sS'18'
p413
F348.58419926986454
sS'project'
p414
F156.62279306248197
sS'didn'
p415
F136.44808272531995
sS'r'
F410.70380150785644
sS'expo'
p416
F299.10042764353841
sS'magnesium'
p417
F325.60757361960384
sS'agate'
p418
F181.10519819260847
sS'gives'
p419
F140.6499531545156
sS'function'
p420
F296.0550233586668
sS'stdin'
p421
F145.06084411886815
sS'false'
p422
F164.15263443443223
sS'rainer'
p423
F182.72659190622898
sS'gif'
p424
F139.48376907074584
sS'wupost'
p425
F178.40213553301729
sS'say'
p426
F212.88246401399977
sS'style'
p427
F146.79088140414555
sS'endif'
p428
F148.79648231289059
sS'ans'
p429
F315.10776609688048
sS'need'
p430
F362.790463267002
sS'monochrome'
p431
F165.56464738243974
sS'seem'
p432
F215.72061952187585
sS'null'
p433
F350.02305957592728
sS'option'
p434
F147.79746635966603
sS'0400'
p435
F279.00155530470113
sS'xref'
p436
F356.2350345523235
sS'rochester'
p437
F360.7469280886051
sS'built'
p438
F197.4241389988909
sS'lib'
p439
F433.53462209936623
sS'callback'
p440
F140.6499531545156
sS'ideas'
p441
F144.7648790818325
sS'scott'
p442
F153.05471660812992
sS'able'
p443
F245.38592185640351
sS'vga'
p444
F165.32405934373097
sS'client'
p445
F313.85629842610905
sS'note'
p446
F274.25935440455561
sS'also'
p447
F351.68149472359016
sS'contact'
p448
F231.84868165675513
sS'best'
p449
F243.80481364282926
sS'pop'
p450
F138.56012471218691
sS'performance'
p451
F218.11751529434113
sS'hello'
p452
F148.79648231289059
sS'blue'
p453
F184.50763806798432
sS'added'
p454
F180.11258744500404
sS'multiple'
p455
F264.87298958276654
sS'allow'
p456
F160.42342462426487
sS'though'
p457
F181.80811665817168
sS'buf'
p458
F270.58730356305961
sS'price'
p459
F176.67653490212126
sS'object'
p460
F182.11273597603267
sS'demo'
p461
F155.6855583677908
sS'toplevel'
p462
F143.70756083178767
sS'errors'
p463
F156.62279306248197
sS'germany'
p464
F218.11751529434113
sS'oracle'
p465
F144.71835247717297
sS'position'
p466
F152.7480950023608
sS'nothing'
p467
F174.935552581536
sS'services'
p468
F200.52628669469414
sS'class'
p469
F198.98162327881855
sS'cc'
p470
F382.0338716584169
sS'icon'
p471
F155.6855583677908
sS'known'
p472
F150.78208958043621
sS'volume'
p473
F160.42342462426487
sS'binaries'
p474
F218.11751529434113
sS'x11r5'
p475
F375.93640869093974
sS'x11r4'
p476
F280.13634057036757
sS'irz401'
p477
F138.56012471218691
sS'upenn'
p478
F177.39069362404257
sS'later'
p479
F158.53219735358434
sS'request'
p480
F276.25938841920237
sS'svr4'
p481
F173.68604837457877
sS'hi'
p482
F270.33731202894563
sS'dos'
p483
F983.98578841229426
sS'latest'
p484
F173.17894832421533
sS'mailing'
p485
F188.80746262222723
sS'microsoft'
p486
F370.15059489664333
sS'fact'
p487
F143.70756083178767
sS'thomas'
p488
F160.47431332771728
sS'currently'
p489
F165.99123228884216
sS'show'
p490
F180.11258744500404
sS'text'
p491
F400.63907036364839
sS'supported'
p492
F223.97225284596044
sS'imakefile'
p493
F140.6499531545156
sS'colors'
p494
F198.43068927957705
sS'keywords'
p495
F268.33238707285682
sS'solaris'
p496
F214.30715917001658
sS'font'
p497
F335.79249132685862
sS'fine'
p498
F194.27003740843699
sS'find'
p499
F331.54516982084397
sS'help'
p500
F373.53036948083309
sS'current'
p501
F273.32875387471364
sS'judges'
p502
F141.59498234798585
sS'believe'
p503
F134.31332273774666
sS'based'
p504
F340.57344405355587
sS'klute'
p505
F140.86481810613452
sS'imake'
p506
F249.89718907335566
sS'title'
p507
F284.11531385081219
sS'implementation'
p508
F167.81288488852957
sS'menu'
p509
F234.08158917450118
sS'writes'
p510
F366.65271458618787
sS'distributed'
p511
F154.69487531814673
sS'state'
p512
F538.69077049897055
sS'appreciated'
p513
F236.9022031191445
sS'terminal'
p514
F262.07316045049032
sS'failed'
p515
F144.7648790818325
sS'going'
p516
F197.98797926817903
sS'notes'
p517
F136.44808272531995
sS'pretty'
p518
F136.44808272531995
sS'8'
F336.10205670647088
sS'darwin'
p519
F279.00155530470113
sS'local'
p520
F261.94636545121494
sS'boulder'
p521
F188.17733016642211
sS'count'
p522
F163.4511890154003
sS'handle'
p523
F138.56012471218691
sS'xsun'
p524
F145.75460486756381
sS'get'
p525
F289.87396218608893
sS'compiled'
p526
F188.44530032402969
sS'xdm'
p527
F286.93344854298886
sS'de'
p528
F460.66274289451007
sS'bear'
p529
F137.34710300874156
sS'synoptics'
p530
F153.73860114083692
sS'install'
p531
F148.79115913563805
sS'cannot'
p532
F225.63979965374369
sS'mcrcim'
p533
F165.14411156927162
sS'shared'
p534
F238.66776052901264
sS'128'
p535
F171.40647426061747
sS'converter'
p536
F158.62302173322084
sS'runs'
p537
F187.15541420694143
sS'resource'
p538
F307.56918558221798
sS'mahan'
p539
F164.16266706827824
sS'h'
F397.16351327671623
sS'xfree86'
p540
F281.84643575389993
sS'bytes'
p541
F149.82277618633185
sS'dpy'
p542
F201.53177951319844
sS'patch'
p543
F249.11909652057776
sS'nrao'
p544
F135.19278464446441
sS'default'
p545
F289.51572652271352
sS'stuff'
p546
F205.58589385152234
sS'release'
p547
F281.3881670643716
sS'ohio'
p548
F592.27394174456151
sS'fixed'
p549
F142.71805059948957
sS'wrote'
p550
F146.79088140414555
sS'obfuscated'
p551
F180.40228859970901
sS'set'
p552
F372.15774354532618
sS'art'
p553
F148.00683317584367
sS'reference'
p554
F148.79115913563805
sS'frame'
p555
F182.11273597603267
sS'waii'
p556
F160.53241778298246
sS'see'
p557
F357.7443895200675
sS'computer'
p558
F337.95830349661327
sS'zaphod'
p559
F368.86759341057461
sS'yes'
p560
F169.81307010458505
sS'sei'
p561
F354.87909221069447
sS'lee'
p562
F147.780814062704
sS'02'
p563
F206.09110219339524
sS'03'
p564
F188.44530032402969
sS'00'
p565
F444.87925468335754
sS'01'
p566
F208.06283233166118
sS'06'
p567
F221.89490327977799
sS'07'
p568
F221.53099599597221
sS'04'
p569
F250.17123709953214
sS'05'
p570
F211.55774705077081
sS'08'
p571
F221.53099599597221
sS'09'
p572
F230.25850929940458
sS'please'
p573
F359.17188130093137
sS'sites'
p574
F142.65026830374359
sS'filename'
p575
F196.43057682652602
sS'libraries'
p576
F238.14177354879715
sS'written'
p577
F218.51433229625704
sS'won'
p578
F178.40213553301729
sS'various'
p579
F171.40647426061747
sS'landon'
p580
F148.79648231289059
sS'readme'
p581
F198.43068927957705
sS'probably'
p582
F225.31041663022179
sS'nntp'
p583
F338.34673138678573
sS'email'
p584
F348.18249337355348
sS'available'
p585
F358.07968607729447
sS'europa'
p586
F332.62221526127854
sS'parent'
p587
F148.79648231289059
sS'25'
p588
F280.06713341600107
sS'screen'
p589
F357.43566672235494
sS'however'
p590
F269.33855308822149
sS'eof_not_ok'
p591
F185.15527813585751
sS'sparc'
p592
F230.25850929940458
sS'harvard'
p593
F366.71500317297176
sS'joe'
p594
F161.5450309505577
sS'key'
p595
F318.61542053912865
sS'interface'
p596
F287.35226720941631
sS'group'
p597
F266.29761190037055
sS'configuration'
p598
F187.80035353779834
sS'come'
p599
F169.61787453015978
sS'tue'
p600
F274.42434519914229
sS'monitor'
p601
F142.65026830374359
sS'received'
p602
F158.53219735358434
sS'informatik'
p603
F196.86030457388284
sS'last'
p604
F219.50893657784491
sS'admin'
p605
F136.44808272531995
sS'many'
p606
F308.94893943551932
sS'display'
p607
F389.91417247607239
sS'etc'
p608
F325.31638836325965
sS'connection'
p609
F137.43688838281054
sS'item'
p610
F161.41460094183134
sS'buzz'
p611
F153.74868305869811
sS'uni'
p612
F323.94682544833415
sS'login'
p613
F183.80826085219962
sS'fix'
p614
F183.48894254836168
sS'olwm'
p615
F201.00771121827285
sS'load'
p616
F148.79115913563805
sS'ch'
p617
F188.17733016642211
sS'co'
p618
F381.1957971245231
sS'386'
p619
F158.62302173322084
sS'point'
p620
F215.49364777207765
sS'color'
p621
F378.44177601911838
sS'character'
p622
F192.98513812385553
sS'ca'
p623
F403.87469841850799
sS'berkeley'
p624
F183.48894254836168
sS'uunet'
p625
F368.62972955555188
sS'height'
p626
F157.9008219398608
sS'simply'
p627
F146.79088140414555
sS'linux'
p628
F228.63834144691793
sS'exec'
p629
F136.44808272531995
sS'table'
p630
F197.88045411912555
sS'writing'
p631
F152.7480950023608
sS'256'
p632
F161.56048509865084
sS'cv'
p633
F200.02663680974666
sS'conference'
p634
F174.17109481320807
sS'ps'
p635
F166.15283264656006
sS'58'
p636
F153.73860114083692
sS'source'
p637
F360.76673929254667
sS'addition'
p638
F142.71805059948957
sS'dortmund'
p639
F206.31588135138409
sS'create'
p640
F261.00564487586308
sS'amiga'
p641
F280.655764612376
sS'mark'
p642
F319.29476788059117
sS'pc'
p643
F346.78927442055544
sS'much'
p644
F303.7253269945337
sS'technical'
p645
F158.53219735358434
sS'define'
p646
F302.23561589004083
sS'followup'
p647
F188.44530032402969
sS'mike'
p648
F160.42342462426487
sS'39'
p649
F160.42342462426487
sS'andrew'
p650
F389.54945307165679
sS'netcom'
p651
F188.80746262222723
sS'else'
p652
F262.1366879514195
sS'language'
p653
F173.17894832421533
sS'whatever'
p654
F154.69487531814673
sS'38'
p655
F165.14411156927162
sS'graphics'
p656
F331.48254175146144
sS'receive'
p657
F158.53219735358434
sS'fwi'
p658
F148.79115913563805
sS'case'
p659
F289.79168665961225
sS'multi'
p660
F213.01670929193881
sS'look'
p661
F368.6869462643927
sS'virtual'
p662
F161.41460094183134
sS'engineering'
p663
F168.80464300560217
sS'value'
p664
F269.31879640063693
sS'n'
F280.22692496541009
sS'compile'
p665
F238.14177354879715
sS'33'
p666
F214.88255010882466
sS'near'
p667
F366.65271458618787
sS'error'
p668
F344.66440403143878
sS'voice'
p669
F150.78208958043621
sS'bb3'
p670
F257.85075116829961
sS'31'
p671
F225.63979965374369
sS'bin'
p672
F242.34941296779184
sS'changed'
p673
F152.7480950023608
sS'motif'
p674
F201.50216239108326
sS'jpl'
p675
F245.21690953374352
sS'ctrl'
p676
F142.01857968337097
sS'ip'
p677
F222.9113068392717
sS'ftms'
p678
F177.94016387141912
sS'libxmu'
p679
F193.27664540218544
sS'toolkit'
p680
F266.23257370066045
sS'ndet_loop'
p681
F173.40664771814721
sS'hardware'
p682
F199.53256290035219
sS'good'
p683
F251.17855073273171
sS'seen'
p684
F164.15263443443223
sS'ic'
p685
F171.88224066885522
sS'technology'
p686
F216.71510477866846
sS'lcs'
p687
F366.43614322208111
sS'binary'
p688
F158.53219735358434
sS'different'
p689
F253.17859861375695
sS'author'
p690
F247.04426975622883
sS'things'
p691
F261.07707691294002
sS'make'
p692
F362.0140519281332
sS'hostname'
p693
F155.33419737423966
sS'check'
p694
F234.39467259775984
sS'read'
p695
F307.94613569230739
sS'compiling'
p696
F140.6499531545156
sS'digital'
p697
F145.75460486756381
sS'9'
F393.14209663064742
sS'several'
p698
F290.98419042640376
sS'events'
p699
F256.55188788021098
sS'higher'
p700
F173.17894832421533
sS'development'
p701
F150.78208958043621
sS'used'
p702
F351.92674504391744
sS'columbia'
p703
F274.63441205560076
sS'context'
p704
F152.7480950023608
sS'keys'
p705
F204.08371618340365
sS'virginia'
p706
F161.41460094183134
sS'sys'
p707
F334.16248965096685
sS'usually'
p708
F140.6499531545156
sS'running'
p709
F371.0420238593785
sS'uses'
p710
F251.03301726957258
sS'user'
p711
F364.36263873823003
sS'characters'
p712
F169.61787453015978
sS'build'
p713
F327.81201575739698
sS'caen'
p714
F158.53219735358434
sS'mil'
p715
F217.59013475945591
sS'noll'
p716
F140.6499531545156
sS'center'
p717
F196.43057682652602
sS'programs'
p718
F349.3458862764117
sS'makes'
p719
F152.7480950023608
sS'thu'
p720
F222.62367331385857
sS'contest'
p721
F235.12659396688022
sS'well'
p722
F296.30163595322296
sS'anybody'
p723
F208.5396785319335
sS'crabapple'
p724
F350.26502424482089
sS'without'
p725
F262.1366879514195
sS'command'
p726
F274.28610707335088
sS'47'
p727
F161.41460094183134
sS'y'
F393.42869069827117
sS'entry'
p728
F398.01486236959073
sS'800'
p729
F203.06459412120927
sS'drawing'
p730
F245.19671766094876
sS'know'
p731
F367.71696050129174
sS'tim'
p732
F150.42777948576455
sS'protocol'
p733
F206.57991770839973
sS'sunos'
p734
F255.65965268038582
sS'obtain'
p735
F150.78208958043621
sS'tcp'
p736
F270.32864914565386
sS'bitmap'
p737
F199.44450276995835
sS'sources'
p738
F292.52389186025556
sS'thanks'
p739
F367.68553913431793
sS'questions'
p740
F241.37205600818496
sS'world'
p741
F322.04687692242288
sS'tgv'
p742
F182.96447456349722
sS'paul'
p743
F171.61805372236222
sS'yet'
p744
F160.42342462426487
sS'previous'
p745
F144.7648790818325
sS'cut'
p746
F143.70756083178767
sS'wed'
p747
F236.9022031191445
sS'seems'
p748
F222.25928669094051
sS'simple'
p749
F207.06873788931293
sS'add'
p750
F228.95090745590716
sS'interested'
p751
F160.42342462426487
sS'4'
F269.13177537942573
sS'easy'
p752
F171.40647426061747
sS'usage'
p753
F145.75136109295542
sS'input'
p754
F281.00158701388978
sS'save'
p755
F142.71805059948957
sS'take'
p756
F210.99308651466214
sS'real'
p757
F186.80733035759181
sS'book'
p758
F155.77807822480753
sS'vendor'
p759
F199.53256290035219
sS'around'
p760
F217.12296987591182
sS'format'
p761
F260.65397563296847
sS'rules'
p762
F280.27618379471573
sS'xterm'
p763
F381.76537028729729
sS'possible'
p764
F265.22870770845208
sS'mot'
p765
F156.1782822531938
sS'test'
p766
F228.01495543957259
sS'mon'
p767
F234.86367948539268
sS'background'
p768
F171.40647426061747
sS'guide'
p769
F163.28812863541245
sS'press'
p770
F134.31332273774666
sS'using'
p771
F349.6733453074857
sS'bit'
p772
F291.43774445952772
sS'new'
p773
F361.22661994308413
sS'like'
p774
F358.38345600643942
sS'59'
p775
F188.44530032402969
sS'd'
F333.88149011609448
sS'55'
p776
F183.48894254836168
sS'54'
p777
F157.6136465505646
sS'57'
p778
F167.17940811832531
sS'56'
p779
F148.79648231289059
sS'manual'
p780
F213.87682487634586
sS'50'
p781
F252.67044322984125
sS'53'
p782
F136.44808272531995
sS'server'
p783
F251.35710995498215
sS'specific'
p784
F214.30715917001658
sS'edit'
p785
F138.56012471218691
sS'either'
p786
F225.31041663022179
sS'output'
p787
F387.32925573088215
sS'ie'
p788
F178.30372360981431
sS'works'
p789
F262.1366879514195
sS'page'
p790
F195.27676393334755
sS'right'
p791
F272.31282572749944
sS'old'
p792
F156.62279306248197
sS'often'
p793
F158.53219735358434
sS'people'
p794
F266.29761190037055
sS'51'
p795
F145.75460486756381
sS'back'
p796
F206.57991770839973
sS'library'
p797
F258.93417150383243
sS'platforms'
p798
F134.31332273774666
sS'sure'
p799
F276.17731211855664
sS'udel'
p800
F331.54420996142466
sS'specified'
p801
F140.6499531545156
sS'home'
p802
F185.48908259261609
sS'52'
p803
F150.78208958043621
sS'provided'
p804
F140.6499531545156
sS'avoid'
p805
F181.80811665817168
sS'sura'
p806
F356.11648094026611
sS'per'
p807
F186.92330930232765
sS'disk'
p808
F187.80035353779834
sS'umd'
p809
F162.29679930083591
sS'machine'
p810
F301.00459717084493
sS'exit'
p811
F180.11258744500404
sS'bogus'
p812
F180.11258744500404
sS'provides'
p813
F160.42342462426487
sS'prog'
p814
F152.7480950023608
sS'gsfc'
p815
F216.92915397928022
sS'core'
p816
F194.06912864514149
sS'run'
p817
F371.40197921473975
sS'colormap'
p818
F279.44356318261572
sS'post'
p819
F167.81288488852957
sS'compiler'
p820
F153.73860114083692
sS'processing'
p821
F142.65026830374359
sS'host'
p822
F302.4432320023821
sS'ld'
p823
F144.71835247717297
sS'although'
p824
F162.29679930083591
sS'found'
p825
F279.92911306169651
sS'article'
p826
F366.08853651106739
sS'dcr'
p827
F144.7648790818325
sS'dcs'
p828
F146.93242776478016
sS'ok'
p829
F136.44808272531995
sS'working'
p830
F201.06448994477586
sS'anything'
p831
F205.58589385152234
sS'package'
p832
F240.14183178109747
sS'o'
F335.53393821983451
sS'side'
p833
F149.93115096306605
sS'compatible'
p834
F162.29679930083591
sS'extension'
p835
F183.48894254836168
sS'oz'
p836
F249.1692476527497
sS'dialog'
p837
F170.60976630333838
sS'os'
p838
F309.53522887853183
sS'fri'
p839
F239.37199884932329
sS'software'
p840
F374.86339993758247
sS'cambridge'
p841
F148.79115913563805
sS'managers'
p842
F160.42342462426487
sS'colorado'
p843
F210.67951640075461
sS'image'
p844
F251.62934010362821
sS'within'
p845
F160.42342462426487
sS'washington'
p846
F165.87642394793306
sS'sol'
p847
F172.39849542409684
sS'usa'
p848
F202.58391856914861
sS'servers'
p849
F228.75483282192783
sS'enterpoop'
p850
F328.73841567363849
sS'bielefeld'
p851
F145.98871347836209
sS'references'
p852
F365.34512424825255
sS'contrib'
p853
F329.05450402354961
sS'twm'
p854
F209.38366702669967
sS'whaley'
p855
F189.16666014192086
sS'fast'
p856
F150.78208958043621
sS'area'
p857
F173.17894832421533
sS'howland'
p858
F314.02862991161714
sS'support'
p859
F367.43326289743266
sS'apps'
p860
F268.26386502806093
sS'xpert'
p861
F260.586819670517
sS'pages'
p862
F165.99123228884216
sS'start'
p863
F298.50606677495949
sS'newsreader'
p864
F188.44530032402969
sS'pa'
p865
F143.70756083178767
sS'emacs'
p866
F139.48376907074584
sS'editor'
p867
F194.12598269609279
sS'way'
p868
F353.43321811818021
sS'ed'
p869
F188.17733016642211
sS'parcplace'
p870
F150.87658024215906
sS'ux'
p871
F134.31332273774666
sS'files'
p872
F368.06166081055892
sS'building'
p873
F173.17894832421533
sS'hard'
p874
F136.44808272531995
sS'complete'
p875
F156.62279306248197
sS'form'
p876
F146.76516850905978
sS'enough'
p877
F167.81288488852957
sS'hp'
p878
F403.7291168300348
sS'memory'
p879
F321.80068185609935
sS'idea'
p880
F146.79088140414555
sS'sdd'
p881
F168.80464300560217
sS'gatech'
p882
F336.11178321442634
sS'larry'
p883
F204.08371618340365
sS'link'
p884
F194.86018914176245
sS'pacific'
p885
F173.17894832421533
sS'e'
F350.78585607745936
sS'line'
p886
F370.19761417662369
sS'trying'
p887
F250.03726657842725
sS'true'
p888
F226.6382720270596
sS'bug'
p889
F182.11273597603267
sS'posted'
p890
F194.86018914176245
sS'info'
p891
F380.35580832033145
sS'wisc'
p892
F143.68401967293829
sS'made'
p893
F160.42342462426487
sS'operating'
p894
F186.80733035759181
sS'toolkits'
p895
F180.11258744500404
sS'versions'
p896
F191.67977024299117
sS'uu'
p897
F199.53256290035219
sS'j'
F390.18664978804452
sS'us'
p898
F241.80475854367833
sS'cis'
p899
F350.23914847131846
sS'uk'
p900
F368.23998794009577
sS'doc'
p901
F179.39463543907698
sS'site'
p902
F211.55774705077081
sS'export'
p903
F335.59899055628711
sS'problem'
p904
F366.22861040874079
sS'z'
F381.85330039042867
sS'similar'
p905
F201.06448994477586
sS'called'
p906
F250.88748547179091
sS'ac'
p907
F402.40120283937085
sS'taylor'
p908
F234.33211672001707
sS'openwin'
p909
F159.84455398619005
sS'computing'
p910
F186.80733035759181
sS'defined'
p911
F200.12912446872696
sS'doug'
p912
F199.45057173932867
sS'doesn'
p913
F307.94613569230739
sS'general'
p914
F188.44530032402969
sS'char'
p915
F297.65221178546597
sS'postscript'
p916
F321.80068185609935
sS'single'
p917
F186.80733035759181
sS'warning'
p918
F199.53256290035219
sS'au'
p919
F395.54036129312294
sS'file'
p920
F201.20270567437643
sS'inf'
p921
F270.33242420189134
sS'ericsson'
p922
F176.93571536579867
sS'archive'
p923
F186.80733035759181
sS'inc'
p924
F328.84782891374647
sS'functions'
p925
F248.39943377668772
sS'uucp'
p926
F351.88726794780507
sS'nl'
p927
F322.12772679686913
sS'48'
p928
F165.99123228884216
sS'49'
p929
F215.89990248011941
sS'46'
p930
F184.48176543255656
sS'corporation'
p931
F191.67977024299117
sS'44'
p932
F275.35842062727789
sS'45'
p933
F198.91448367536469
sS'42'
p934
F199.53256290035219
sS'43'
p935
F165.99123228884216
sS'40'
p936
F227.63320443053337
sS'41'
p937
F227.39717746949972
sS'application'
p938
F370.01321950277014
sS'tin'
p939
F181.80811665817168
sS'setting'
p940
F169.61787453015978
sS'5'
F359.0882934641366
sS'es'
p941
F200.52365807886582
sS'normal'
p942
F146.79088140414555
sS'fs7'
p943
F327.85018001381496
sS'department'
p944
F205.58589385152234
sS'nt'
p945
F177.66892059062249
sS'company'
p946
F150.78208958043621
sS'draw'
p947
F212.44070294849712
sS'large'
p948
F186.80733035759181
sS'users'
p949
F265.03294202501138
sS'toad'
p950
F138.56012471218691
sS'symbol'
p951
F154.69487531814673
sS'welcome'
p952
F136.44808272531995
sS'problems'
p953
F284.46508847851493
sS'includes'
p954
F244.00298362134814
sS'ansi'
p955
F164.15263443443223
sS'richardson'
p956
F143.70756083178767
sS'variable'
p957
F184.17443710670517
sS'copyright'
p958
F136.31368341004705
sS'lang'
p959
F185.15527813585751
sS'remote'
p960
F249.4220651904385
sS'calls'
p961
F199.45057173932867
sS'typically'
p962
F144.7648790818325
sS'required'
p963
F169.61787453015978
sS'berlin'
p964
F237.41849256497602
sS'original'
p965
F150.78208958043621
sS'depth'
p966
F192.98513812385553
sS'nasa'
p967
F363.20912261341135
sS'u'
F392.40617085251267
sS'time'
p968
F388.62631368282564
sS'directory'
p969
F281.23122632314039
sS'international'
p970
F167.81288488852957
sS'12'
p971
F366.24669835485071
sS'convert'
p972
F167.99142383770734
sS'cpu'
p973
F183.48894254836168
sS'others'
p974
F146.79088140414555
sS'richard'
p975
F148.79648231289059
s.