(dp1
S''
F1166.6159881055321
sS'limited'
p2
F142.71805059948957
sS'code'
p3
F366.02847798139317
sS'sci'
p4
F307.59742384010156
sS'gr'
p5
F171.47767050324117
sS'results'
p6
F129.97351208864953
sS'steve'
p7
F231.84868165675513
sS'91'
p8
F129.97351208864953
sS'manager'
p9
F152.7480950023608
sS'comments'
p10
F134.31332273774666
sS'go'
p11
F259.85079452760527
sS'alt'
p12
F671.98087921593287
sS'disk'
p13
F215.08909872773802
sS'rayshade'
p14
F212.58806269602013
sS'waikato'
p15
F141.12279442347884
sS'tw'
p16
F134.23875567111401
sS'tu'
p17
F247.21479027724877
sS'peachnet'
p18
F132.15531685812013
sS'send'
p19
F345.36215806491526
sS'environment'
p20
F171.40647426061747
sS'0'
F449.71499974455241
sS'program'
p21
F363.17354367719412
sS'theseas'
p22
F127.76732849111318
sS'umich'
p23
F233.57072403923155
sS'suite'
p24
F142.71805059948957
sS'sorry'
p25
F154.69487531814673
sS'include'
p26
F251.17855073273171
sS'ucsd'
p27
F217.21266341050998
sS'p2'
p28
F172.43037741961035
sS'fax'
p29
F331.015004200362
sS'far'
p30
F204.09100303721419
sS'quicktime'
p31
F280.13083114580576
sS'1993'
p32
F194.55075759377189
sS'choice'
p33
F148.79648231289059
sS'msdos'
p34
F229.26347621408775
sS'every'
p35
F194.27003740843699
sS'mps'
p36
F402.80404066101693
sS'anonymous'
p37
F218.51433229625704
sS'rec'
p38
F160.2382868435318
sS'method'
p39
F160.42342462426487
sS'labtam'
p40
F139.57365933296055
sS'usa'
p41
F228.95090745590716
sS'level'
p42
F190.44542893973917
sS'list'
p43
F307.29995971142904
sS'solution'
p44
F129.97351208864953
sS'standards'
p45
F143.68401967293829
sS'large'
p46
F201.06448994477586
sS'p'
F325.57425254023093
sS'red'
p47
F154.86426767178656
sS'small'
p48
F220.44752473235528
sS'jfif'
p49
F230.97138574739668
sS'tel'
p50
F192.06950867752397
sS'za'
p51
F189.72013010716108
sS'second'
p52
F165.32405934373097
sS'cost'
p53
F146.79088140414555
sS'design'
p54
F207.06873788931293
sS'displays'
p55
F204.63110607022031
sS'ufl'
p56
F289.52704164793636
sS'targa'
p57
F169.61787453015978
sS'port'
p58
F136.44808272531995
sS'machines'
p59
F181.10519819260847
sS'even'
p60
F302.76485797301365
sS'pipex'
p61
F173.17894832421533
sS'rchland'
p62
F183.45646063632469
sS'swrinde'
p63
F140.6499531545156
sS'elroy'
p64
F138.56012471218691
sS'dept'
p65
F207.06873788931293
sS'sun'
p66
F354.39045749867552
sS'section'
p67
F201.5326697311111
sS'multimedia'
p68
F244.20115555021721
sS'netnews'
p69
F130.80676477023005
sS'access'
p70
F284.6709077774853
sS'version'
p71
F378.7464210564645
sS'usenet'
p72
F409.29664852654361
sS'reply'
p73
F339.76805253189337
sS'public'
p74
F223.97225284596044
sS'3d'
p75
F379.88622372081977
sS'body'
p76
F144.7648790818325
sS'full'
p77
F307.07624089697657
sS'brunel'
p78
F127.76732849111318
sS'ms'
p79
F261.82170966208474
sS'never'
p80
F162.29679930083591
sS'commercial'
p81
F214.30715917001658
sS'answers'
p82
F310.87440989156005
sS'objects'
p83
F281.30915544769795
sS'let'
p84
F214.30715917001658
sS'pub'
p85
F379.80436841735718
sS'groups'
p86
F167.81288488852957
sS'address'
p87
F302.52509649979618
sS'100'
p88
F244.64104594037474
sS'standard'
p89
F290.11671275292252
sS'change'
p90
F214.30715917001658
sS'box'
p91
F201.06448994477586
sS'convert'
p92
F307.94613569230739
sS'reston'
p93
F315.39703458072808
sS'sender'
p94
F339.73102303281667
sS'ctr'
p95
F151.7724119591484
sS'33'
p96
F186.80733035759181
sS'32'
p97
F264.13672864301384
sS'31'
p98
F211.55774705077081
sS'30'
p99
F305.53386798894957
sS'allows'
p100
F164.15263443443223
sS'36'
p101
F169.81307010458505
sS'35'
p102
F215.72061952187585
sS'34'
p103
F155.6855583677908
sS'gl'
p104
F171.40647426061747
sS'products'
p105
F155.6855583677908
sS'mentor'
p106
F129.97351208864953
sS'lightwave'
p107
F134.15569491566882
sS'usually'
p108
F140.6499531545156
sS'california'
p109
F144.7648790818325
sS'bob'
p110
F141.63923859467994
sS'devices'
p111
F136.44808272531995
sS'changes'
p112
F153.73860114083692
sS'macintosh'
p113
F187.15541420694143
sS'via'
p114
F277.17380743608447
sS'useful'
p115
F199.53256290035219
sS'apple'
p116
F180.74035810590797
sS'search'
p117
F199.53256290035219
sS'sgi'
p118
F344.92378645012803
sS'put'
p119
F157.6136465505646
sS'unix'
p120
F357.67988412249974
sS'munnari'
p121
F160.42342462426487
sS'tools'
p122
F248.72466232117202
sS'post'
p123
F267.22006499195504
sS'unit'
p124
F189.21438617138199
sS've'
p125
F338.67738855685184
sS'plot'
p126
F136.25613257980461
sS'use'
p127
F348.79247859063054
sS'usc'
p128
F341.2400296896933
sS'1993apr27'
p129
F134.31332273774666
sS'would'
p130
F320.50344702319688
sS'informatik'
p131
F146.79088140414555
sS'1993apr28'
p132
F144.7648790818325
sS'contains'
p133
F164.15263443443223
sS'cray'
p134
F172.60391948295307
sS'next'
p135
F186.80733035759181
sS'almost'
p136
F136.44808272531995
sS'call'
p137
F223.2646438679148
sS'centre'
p138
F146.79088140414555
sS'6'
F351.6242671093525
sS'indiana'
p139
F136.25613257980461
sS'type'
p140
F250.59765885435752
sS'tell'
p141
F181.80811665817168
sS'sort'
p142
F132.15531685812013
sS'posting'
p143
F343.37783252165315
sS'advance'
p144
F241.80475854367833
sS'club'
p145
F338.07959962216745
sS'company'
p146
F152.7480950023608
sS'getting'
p147
F154.69487531814673
sS'problem'
p148
F328.39898322354082
sS'gtefsd'
p149
F349.5862123326915
sS'phone'
p150
F250.88748547179091
sS'berlin'
p151
F144.7648790818325
sS'bitnet'
p152
F171.61805372236222
sS'particular'
p153
F162.29679930083591
sS'known'
p154
F162.29679930083591
sS'93'
p155
F365.60000201778792
sS'must'
p156
F240.59296553767962
sS'ii'
p157
F164.15263443443223
sS'utexas'
p158
F353.39637015678716
sS'graphic'
p159
F134.31332273774666
sS'ma'
p160
F132.15531685812013
sS'ibm'
p161
F422.0517208956997
sS'f'
F197.71833005456341
sS'science'
p162
F270.33731202894563
sS'work'
p163
F330.75766200052129
sS'values'
p164
F164.15263443443223
sS'client'
p165
F150.78208958043621
sS'den'
p166
F179.74393641323945
sS'v'
F273.36043674524967
sS'following'
p167
F235.65319941135735
sS'making'
p168
F164.15263443443223
sS'dec'
p169
F252.18982383549653
sS'example'
p170
F178.40213553301729
sS'cad'
p171
F219.38999489715891
sS'control'
p172
F140.6499531545156
sS'es'
p173
F129.64521728051506
sS'radius'
p174
F143.70756083178767
sS'computers'
p175
F129.97351208864953
sS'workstations'
p176
F184.48176543255656
sS'tar'
p177
F293.79179930782385
sS'give'
p178
F242.38614796596755
sS'process'
p179
F169.61787453015978
sS'cwru'
p180
F151.82771340371229
sS'suggestions'
p181
F150.78208958043621
sS'bus'
p182
F179.3806729114502
sS'high'
p183
F259.93019270997945
sS'heard'
p184
F186.80733035759181
sS'something'
p185
F282.01204406472334
sS'want'
p186
F346.37259794625157
sS'dxf'
p187
F146.79088140414555
sS'keep'
p188
F137.43688838281054
sS'simple'
p189
F240.59296553767962
sS'information'
p190
F368.81610035904521
sS'cso'
p191
F304.58552296083519
sS'end'
p192
F213.01670929193881
sS'sphere'
p193
F181.80811665817168
sS'eng'
p194
F364.72441452516495
sS'rather'
p195
F202.58391856914861
sS'csd'
p196
F165.56464738243974
sS'purpose'
p197
F132.15531685812013
sS'means'
p198
F184.83083651298838
sS'machine'
p199
F239.13712956366473
sS'answer'
p200
F160.53241778298246
sS'instead'
p201
F129.97351208864953
sS'greatly'
p202
F132.15531685812013
sS'map'
p203
F173.17894832421533
sS'fr'
p204
F267.34603109543235
sS'faq'
p205
F290.25935768753982
sS'description'
p206
F154.69487531814673
sS'may'
p207
F367.62128515810144
sS'containing'
p208
F152.7480950023608
sS'lab'
p209
F146.79088140414555
sS'applications'
p210
F234.39467259775984
sS'mac'
p211
F360.2492862550472
sS'plane'
p212
F134.15569491566882
sS'designed'
p213
F154.69487531814673
sS'fi'
p214
F333.48454744889426
sS'data'
p215
F379.52569288523563
sS'parallel'
p216
F134.31332273774666
sS'types'
p217
F146.79088140414555
sS'times'
p218
F127.76732849111318
sS'short'
p219
F144.71835247717297
sS'institute'
p220
F196.43057682652602
sS'maybe'
p221
F136.44808272531995
sS'documentation'
p222
F150.78208958043621
sS'su'
p223
F182.11273597603267
sS'st'
p224
F175.92782051983778
sS'q'
F236.44689376262622
sS'provide'
p225
F169.61787453015978
sS'switch'
p226
F129.76774531409961
sS'algorithms'
p227
F188.44530032402969
sS'allow'
p228
F150.78208958043621
sS'sat'
p229
F144.7648790818325
sS'order'
p230
F197.4241389988909
sS'se'
p231
F263.69400667247982
sS'operations'
p232
F138.56012471218691
sS'photoshop'
p233
F158.53219735358434
sS'uwm'
p234
F207.10974883327697
sS'developed'
p235
F167.81288488852957
sS'move'
p236
F133.14359774934829
sS'jpeg'
p237
F206.71985093635178
sS'years'
p238
F175.92782051983778
sS'course'
p239
F182.80083501881006
sS'130'
p240
F162.29679930083591
sS'including'
p241
F202.58391856914861
sS'converting'
p242
F169.61787453015978
sS'still'
p243
F231.84868165675513
sS'compatible'
p244
F148.79648231289059
sS'24'
p245
F381.98377784916624
sS'25'
p246
F260.79241495261118
sS'26'
p247
F257.6596974730183
sS'27'
p248
F283.86016587454969
sS'20'
p249
F375.96107414468196
sS'21'
p250
F355.1852033579566
sS'22'
p251
F323.98069514953193
sS'23'
p252
F316.89723809439357
sS'interesting'
p253
F142.71805059948957
sS'll'
p254
F286.58145078270331
sS'torn'
p255
F152.7480950023608
sS'28'
p256
F263.95034144795534
sS'29'
p257
F278.40204880493286
sS'actually'
p258
F194.86018914176245
sS'better'
p259
F307.83897224924573
sS'window'
p260
F193.09050434168
sS'newsgroup'
p261
F193.27664540218544
sS'systems'
p262
F343.65378680165344
sS'listing'
p263
F165.99123228884216
sS'mail'
p264
F381.07241429556069
sS'might'
p265
F231.84868165675513
sS'pixel'
p266
F278.40204880493286
sS'non'
p267
F230.56102903548447
sS'someone'
p268
F227.95592420641054
sS'return'
p269
F141.59498234798585
sS'gray'
p270
F134.07693388948579
sS'coding'
p271
F141.59498234798585
sS'material'
p272
F158.53219735358434
sS'inria'
p273
F154.21073200466526
sS'noc'
p274
F365.45790913960445
sS'das'
p275
F363.72576002519946
sS'servers'
p276
F134.31332273774666
sS'day'
p277
F141.63923859467994
sS'viewers'
p278
F193.09050434168
sS'articles'
p279
F138.56012471218691
sS'name'
p280
F268.33238707285682
sS'purdue'
p281
F227.47648456691067
sS'uknet'
p282
F208.73877703436025
sS'edge'
p283
F171.88224066885522
sS'university'
p284
F289.54437333106142
sS'routines'
p285
F202.58391856914861
sS'l'
F161.41460094183134
sS'2d'
p286
F159.52321515623163
sS'iff'
p287
F150.79674904357552
sS'kpc'
p288
F174.43418206364188
sS'mode'
p289
F267.22006499195504
sS'andrew'
p290
F289.24274265158357
sS'x11'
p291
F185.15527813585751
sS'tracer'
p292
F144.71835247717297
sS'1993apr16'
p293
F140.56045402787441
sS'development'
p294
F146.79088140414555
sS'domain'
p295
F174.935552581536
sS'wuarchive'
p296
F146.79088140414555
sS'adobe'
p297
F203.57779606908554
sS'ee'
p298
F198.91448367536469
sS'michael'
p299
F190.06938356179162
sS'hard'
p300
F157.6136465505646
sS'product'
p301
F192.06950867752397
sS'related'
p302
F181.80811665817168
sS'group'
p303
F312.53559012045912
sS'books'
p304
F198.91448367536469
sS'year'
p305
F166.98285226950864
sS'navy'
p306
F248.07683534174564
sS'programmer'
p307
F212.58806269602013
sS'thing'
p308
F214.30715917001658
sS'special'
p309
F154.69487531814673
sS'really'
p310
F208.06283233166118
sS'hacker'
p311
F177.66892059062249
sS'try'
p312
F258.93417150383243
sS'network'
p313
F257.75522360399555
sS'space'
p314
F282.93952899329594
sS'quality'
p315
F318.14004126424896
sS'robert'
p316
F232.23541528799973
sS'since'
p317
F256.75926674538334
sS'research'
p318
F327.03497580985908
sS'looking'
p319
F334.13069239820857
sS're'
p320
F309.57290634003039
sS'papers'
p321
F154.69487531814673
sS'7'
F329.49444180567201
sS'internet'
p322
F311.47879193265987
sS'print'
p323
F140.54406134022449
sS'got'
p324
F244.20115555021721
sS'gov'
p325
F393.81156466850973
sS'supports'
p326
F188.44530032402969
sS'plotting'
p327
F150.78208958043621
sS'math'
p328
F215.89990248011941
sS'ece'
p329
F348.53922205891058
sS'linear'
p330
F144.71835247717297
sS'written'
p331
F230.56102903548447
sS'rle'
p332
F157.32775816442873
sS'little'
p333
F201.06448994477586
sS'free'
p334
F349.8901492761932
sS'quite'
p335
F176.67653490212126
sS'g'
F268.23307822204413
sS'included'
p336
F146.79088140414555
sS'imaging'
p337
F220.13982074174973
sS'imagine'
p338
F207.10974883327697
sS'ask'
p339
F183.1356566087955
sS'org'
p340
F274.45456960563155
sS'wanted'
p341
F167.81288488852957
sS'card'
p342
F307.03114478476266
sS'raster'
p343
F188.17733016642211
sS'uiuc'
p344
F332.09235044890568
sS'language'
p345
F211.55774705077081
sS'created'
p346
F132.15531685812013
sS'could'
p347
F350.89208476167454
sS'emory'
p348
F150.78208958043621
sS'programming'
p349
F263.02168788551461
sS'running'
p350
F213.44649449739077
sS'david'
p351
F240.36739760065507
sS'silicon'
p352
F129.97351208864953
sS'xloadimage'
p353
F168.52115894284046
sS'place'
p354
F140.6499531545156
sS'due'
p355
F162.29679930083591
sS'w'
F247.01620172620363
sS'shareware'
p356
F254.55184234411453
sS'think'
p357
F326.17537938731567
sS'first'
p358
F301.46072962883039
sS'feed'
p359
F146.79088140414555
sS'52'
p360
F140.6499531545156
sS'200'
p361
F143.68401967293829
sS'already'
p362
F188.44530032402969
sS'isbn'
p363
F131.97390881959623
sS'features'
p364
F218.51433229625704
sS'misc'
p365
F294.00542021797918
sS'number'
p366
F342.99103880642559
sS'one'
p367
F363.91208382149176
sS'done'
p368
F174.935552581536
sS'long'
p369
F138.56012471218691
sS'another'
p370
F285.46179176724911
sS'3do'
p371
F174.935552581536
sS'xv'
p372
F296.24151578141266
sS'polygons'
p373
F198.38065514556163
sS'size'
p374
F231.55611097622864
sS'given'
p375
F188.44530032402969
sS'service'
p376
F162.29679930083591
sS'gif'
p377
F381.28000035437299
sS'top'
p378
F138.56012471218691
sS'system'
p379
F377.29775840747556
sS'least'
p380
F226.30529714643919
sS'anyone'
p381
F361.89554128441006
sS'needed'
p382
F204.09100303721419
sS'2'
F281.64953237381764
sS'nps'
p383
F131.8734946535165
sS'tom'
p384
F143.70756083178767
sS'white'
p385
F132.15531685812013
sS'john'
p386
F200.52628669469414
sS'bits'
p387
F275.39365646982424
sS'national'
p388
F197.4241389988909
sS'uka'
p389
F147.79746635966603
sS'low'
p390
F144.7648790818325
sS'way'
p391
F299.46070628648692
sS'kubota'
p392
F131.97390881959623
sS'tool'
p393
F209.63547747758523
sS'poster'
p394
F142.71805059948957
sS'easily'
p395
F134.31332273774666
sS'sciences'
p396
F158.53219735358434
sS'pixels'
p397
F199.98808885601935
sS'part'
p398
F213.87682487634586
sS'manipulation'
p399
F207.06873788931293
sS'boeing'
p400
F143.70756083178767
sS'copy'
p401
F193.27664540218544
sS'haven'
p402
F186.80733035759181
sS'11'
p403
F311.17159197475314
sS'10'
p404
F355.6274430631849
sS'1993apr15'
p405
F200.71406232811739
sS'b'
F319.21272255024445
sS'15'
p406
F378.04746055834391
sS'14'
p407
F353.33990635661945
sS'17'
p408
F367.12226015098645
sS'16'
p409
F379.64828422469145
sS'19'
p410
F336.93457789384286
sS'double'
p411
F188.17733016642211
sS'programs'
p412
F342.35590822526444
sS'board'
p413
F160.42342462426487
sS'1993apr19'
p414
F231.22416343649223
sS'project'
p415
F264.13672864301384
sS'r'
F302.43511231647625
sS'pcx'
p416
F146.76516850905978
sS'magnesium'
p417
F331.59397344592082
sS'cards'
p418
F152.7480950023608
sS'video'
p419
F354.80159238530462
sS'ira'
p420
F143.70756083178767
sS'rate'
p421
F138.56012471218691
sS'colour'
p422
F229.65389457640146
sS'interactive'
p423
F211.44640641184193
sS'function'
p424
F165.99123228884216
sS'san'
p425
F154.18120300114015
sS'wupost'
p426
F180.11258744500404
sS'craig'
p427
F165.11081457269222
sS'needs'
p428
F146.79088140414555
sS'say'
p429
F228.95090745590716
sS'buy'
p430
F161.41460094183134
sS'ans'
p431
F319.75485198426145
sS'need'
p432
F369.72258375389941
sS'seen'
p433
F163.28812863541245
sS'seem'
p434
F160.42342462426487
sS'lbl'
p435
F138.46716938619232
sS'ray'
p436
F340.18195101951505
sS'conversion'
p437
F271.32871835401573
sS'xref'
p438
F364.02479951030784
sS'engin'
p439
F186.79437711504355
sS'mil'
p440
F292.20282991363979
sS'mapping'
p441
F141.63923859467994
sS'ideas'
p442
F134.31332273774666
sS'editing'
p443
F127.76732849111318
sS'scott'
p444
F151.95354667137903
sS'able'
p445
F243.00746125326174
sS'vga'
p446
F254.55184234411453
sS'contact'
p447
F282.67087774799631
sS'note'
p448
F277.12570305507751
sS'also'
p449
F331.00955787076589
sS'animation'
p450
F364.40425844250569
sS'take'
p451
F231.55611097622864
sS'online'
p452
F173.17894832421533
sS'performance'
p453
F173.17894832421533
sS'mit'
p454
F286.71200244686509
sS'blue'
p455
F150.79674904357552
sS'sure'
p456
F231.55611097622864
sS'ins'
p457
F136.44808272531995
sS'though'
p458
F190.06938356179162
sS'buffer'
p459
F196.80249665422801
sS'object'
p460
F234.12170794750764
sS'demo'
p461
F146.79088140414555
sS'75'
p462
F144.7648790818325
sS'said'
p463
F144.7648790818325
sS'germany'
p464
F139.54917551453178
sS'services'
p465
F229.26347621408775
sS'alpha'
p466
F136.31368341004705
sS'pages'
p467
F147.780814062704
sS'cc'
p468
F396.40835663227602
sS'sean'
p469
F141.76400675253024
sS'volume'
p470
F204.58402018896871
sS'picture'
p471
F214.30715917001658
sS'800'
p472
F136.44808272531995
sS'04'
p473
F193.09050434168
sS'windows'
p474
F375.05017335759482
sS'doc'
p475
F127.76732849111318
sS'later'
p476
F129.97351208864953
sS'request'
p477
F186.80733035759181
sS'drive'
p478
F142.71805059948957
sS'drawing'
p479
F179.39463543907698
sS'points'
p480
F300.32622571870922
sS'error'
p481
F156.62279306248197
sS'movie'
p482
F166.36996024781817
sS'dos'
p483
F295.58682289782428
sS'latest'
p484
F150.78208958043621
sS'mailing'
p485
F136.44808272531995
sS'called'
p486
F252.31136080781084
sS'thomas'
p487
F137.34987812794665
sS'09'
p488
F201.06448994477586
sS'text'
p489
F248.23762843633526
sS'supported'
p490
F156.62279306248197
sS'anyway'
p491
F156.6951127012376
sS'colors'
p492
F296.5051228491389
sS'nfotis'
p493
F193.27664540218544
sS'keywords'
p494
F308.37849513486685
sS'earth'
p495
F144.7648790818325
sS'fine'
p496
F158.53219735358434
sS'find'
p497
F358.89360240572728
sS'help'
p498
F371.58304449212358
sS'ksu'
p499
F142.93961512657242
sS'current'
p500
F258.67215141641111
sS'believe'
p501
F134.31332273774666
sS'based'
p502
F318.25007001815248
sS'series'
p503
F151.7724119591484
sS'menu'
p504
F171.61805372236222
sS'writes'
p505
F365.06785834906384
sS'distributed'
p506
F168.80464300560217
sS'3'
F390.28729098217048
sS'texture'
p507
F147.780814062704
sS'appreciated'
p508
F209.99885578816958
sS'otis'
p509
F128.75503299472803
sS'going'
p510
F188.44530032402969
sS'black'
p511
F165.14411156927162
sS'siggraph'
p512
F274.39532403043307
sS'pretty'
p513
F176.67653490212126
sS'8'
F373.40059942654432
sS'circle'
p514
F129.97351208864953
sS'darwin'
p515
F257.85075116829961
sS'local'
p516
F158.53219735358434
sS'hope'
p517
F164.15263443443223
sS'visual'
p518
F127.76732849111318
sS'handle'
p519
F182.11273597603267
sS'get'
p520
F360.71843658419482
sS'de'
p521
F469.62968518433269
sS'kind'
p522
F173.17894832421533
sS'watson'
p523
F217.92677330088415
sS'12'
p524
F328.61485492005164
sS'new'
p525
F348.34018964228898
sS'128'
p526
F303.7253269945337
sS'129'
p527
F156.6951127012376
sS'dr'
p528
F140.6499531545156
sS'lossless'
p529
F133.01193894695211
sS'acm'
p530
F143.70756083178767
sS'runs'
p531
F205.58589385152234
sS'resource'
p532
F178.40213553301729
sS'h'
F159.84455398619005
sS'stanford'
p533
F196.78524273302557
sS'bytes'
p534
F148.85245388216723
sS'summary'
p535
F201.06448994477586
sS'bad'
p536
F184.48176543255656
sS'stuff'
p537
F266.26509220730912
sS'common'
p538
F144.7648790818325
sS'uchicago'
p539
F138.44842718469727
sS'18'
p540
F333.43467875469048
sS'release'
p541
F148.79648231289059
sS'x'
F356.94594255203288
sS'wrote'
p542
F229.26347621408775
sS'view'
p543
F256.55188788021098
sS'set'
p544
F284.6709077774853
sS'art'
p545
F188.17733016642211
sS'questions'
p546
F199.98808885601935
sS'reference'
p547
F174.935552581536
sS'frame'
p548
F206.09110219339524
sS'pixutils'
p549
F205.58589385152234
sS'see'
p550
F365.01319687005287
sS'computer'
p551
F351.90466113531306
sS'zaphod'
p552
F367.22733054479357
sS'result'
p553
F150.78208958043621
sS'tape'
p554
F135.19278464446441
sS'lilley'
p555
F252.55359877696202
sS'paul'
p556
F136.44808272531995
sS'sei'
p557
F357.50263417047501
sS'02'
p558
F202.58391856914861
sS'03'
p559
F228.01495543957259
sS'00'
p560
F319.21272255024445
sS'01'
p561
F221.89490327977799
sS'06'
p562
F186.51132351179081
sS'07'
p563
F195.85366734088123
sS'simtel20'
p564
F194.62051149056433
sS'05'
p565
F194.86018914176245
sS'pictures'
p566
F549.77443912449303
sS'08'
p567
F189.43841951755789
sS'currently'
p568
F208.5396785319335
sS'please'
p569
F366.27682132505896
sS'sites'
p570
F276.21834979315963
sS'vms'
p571
F144.71835247717297
sS'libraries'
p572
F140.6499531545156
sS'state'
p573
F523.89107684613225
sS'future'
p574
F136.44808272531995
sS'various'
p575
F208.5396785319335
sS'routine'
p576
F167.17940811832531
sS'probably'
p577
F205.58589385152234
sS'reading'
p578
F183.48894254836168
sS'nntp'
p579
F358.13313748346064
sS'email'
p580
F332.01732618456646
sS'berkeley'
p581
F153.73860114083692
sS'available'
p582
F350.25479494783519
sS'college'
p583
F162.29679930083591
sS'europa'
p584
F349.5862123326915
sS'screen'
p585
F321.5395949370415
sS'tut'
p586
F196.03577375664818
sS'however'
p587
F225.31041663022179
sS'harvard'
p588
F370.6556286698376
sS'386'
p589
F136.44808272531995
sS'agate'
p590
F205.58589385152234
sS'interface'
p591
F241.15605738423366
sS'article'
p592
F365.94679436179661
sS'phigs'
p593
F255.12466345429883
sS'packages'
p594
F221.26456841387008
sS'come'
p595
F167.81288488852957
sS'tue'
p596
F271.3437497570327
sS'monitor'
p597
F149.78661367769953
sS'c'
F446.18537539760695
sS'grass'
p598
F138.44842718469727
sS'last'
p599
F219.12305038732035
sS'many'
p600
F360.18458658704287
sS'pitt'
p601
F186.14820258529446
sS'quantization'
p602
F170.60976630333838
sS'etc'
p603
F374.99545756798915
sS'unc'
p604
F163.28812863541245
sS'uni'
p605
F225.09324285460954
sS'asked'
p606
F127.76732849111318
sS'comes'
p607
F138.56012471218691
sS'compressed'
p608
F136.44808272531995
sS'ch'
p609
F318.57754104863801
sS'co'
p610
F312.60468304952394
sS'point'
p611
F330.37560265067077
sS'pov'
p612
F239.69215889827595
sS'smith'
p613
F135.19278464446441
sS'ca'
p614
F399.73684691523039
sS'others'
p615
F178.40213553301729
sS'gopher'
p616
F240.51408460014488
sS'uunet'
p617
F363.01140576706251
sS'cd'
p618
F219.50893657784491
sS'61'
p619
F178.43064980688698
sS'tga'
p620
F156.62279306248197
sS'64'
p621
F137.34987812794665
sS'linux'
p622
F144.74153751127443
sS'rpi'
p623
F181.79729196257369
sS'writing'
p624
F164.15263443443223
sS'256'
p625
F272.37640232452185
sS'ames'
p626
F179.70033591838927
sS'uci'
p627
F148.99402605284214
sS'conference'
p628
F218.51433229625704
sS'described'
p629
F142.71805059948957
sS'brocku'
p630
F130.96151170339101
sS'fri'
p631
F199.53256290035219
sS'three'
p632
F204.58402018896871
sS'amiga'
p633
F354.39393592436227
sS'mark'
p634
F207.67993842740469
sS'pc'
p635
F369.25859315019767
sS'much'
p636
F351.6242671093525
sS'interest'
p637
F146.79088140414555
sS'basic'
p638
F146.79088140414555
sS'bbs'
p639
F232.8322171330494
sS'nessie'
p640
F165.11081457269222
sS'followup'
p641
F181.80811665817168
sS'mike'
p642
F139.50032621265709
sS'mcc'
p643
F274.59350037730837
sS'39'
p644
F173.17894832421533
sS'netcom'
p645
F195.27676393334755
sS'else'
p646
F231.84868165675513
sS'bmp'
p647
F144.71835247717297
sS'38'
p648
F144.7648790818325
sS'understand'
p649
F150.78208958043621
sS'unt'
p650
F162.20968164262453
sS'40'
p651
F204.09100303721419
sS'case'
p652
F206.57991770839973
sS'p3'
p653
F163.62086849100587
sS'p1'
p654
F164.84445435633597
sS'look'
p655
F295.22563935282722
sS'single'
p656
F159.52321515623163
sS'value'
p657
F170.83873610614307
sS'n'
F285.91655418113612
sS'technical'
p658
F207.06873788931293
sS'near'
p659
F366.53310216119178
sS'formats'
p660
F351.23313631483927
sS'voice'
p661
F142.71805059948957
sS'bb3'
p662
F246.56183917055313
sS'k'
F140.6499531545156
sS'archie'
p663
F208.2952148622374
sS'viewer'
p664
F285.35223835363462
sS'motif'
p665
F192.67307374756959
sS'jpl'
p666
F227.31557798774301
sS'best'
p667
F257.85075116829961
sS'37'
p668
F154.69487531814673
sS'thus'
p669
F159.52321515623163
sS'site'
p670
F266.29761190037055
sS'surface'
p671
F227.39717746949972
sS'hardware'
p672
F298.30166044105988
sS'good'
p673
F349.72249198213933
sS'vesa'
p674
F250.52650370297516
sS'technology'
p675
F240.59296553767962
sS'24bit'
p676
F190.26703758689982
sS'different'
p677
F286.58145078270331
sS'open'
p678
F146.79088140414555
sS'author'
p679
F219.89482619422836
sS'perhaps'
p680
F146.79088140414555
sS'things'
p681
F219.89482619422836
sS'make'
p682
F309.9573928070871
sS'archive'
p683
F284.6709077774853
sS'add'
p684
F167.81288488852957
sS'complex'
p685
F134.31332273774666
sS'split'
p686
F138.56012471218691
sS'9'
F268.29765016309011
sS'several'
p687
F221.26456841387008
sS'spartan'
p688
F130.96151170339101
sS'tried'
p689
F148.79648231289059
sS'week'
p690
F148.79115913563805
sS'used'
p691
F332.01732618456646
sS'columbia'
p692
F252.99727314819822
sS'driver'
p693
F224.28086998171111
sS'virginia'
p694
F137.43688838281054
sS'sys'
p695
F377.84876989200922
sS'viewing'
p696
F198.43068927957705
sS'edges'
p697
F139.48376907074584
sS'uses'
p698
F171.40647426061747
sS'user'
p699
F321.41983550408656
sS'along'
p700
F137.43688838281054
sS'rochester'
p701
F334.29290455041485
sS'caen'
p702
F197.98797926817903
sS'built'
p703
F173.17894832421533
sS'center'
p704
F309.66650516544877
sS'database'
p705
F209.53384191180476
sS'makes'
p706
F142.71805059948957
sS'thu'
p707
F212.88246401399977
sS'well'
p708
F343.35384778375902
sS'anybody'
p709
F200.52628669469414
sS'analysis'
p710
F279.00155530470113
sS'crabapple'
p711
F358.22142972373189
sS'without'
p712
F280.06713341600107
sS'command'
p713
F134.31332273774666
sS'sets'
p714
F136.44808272531995
sS'y'
F370.87720943698918
sS'model'
p715
F207.58599063258436
sS'binaries'
p716
F557.92875775982498
sS'44'
p717
F213.54195010770252
sS'know'
p718
F367.53148506704935
sS'less'
p719
F181.80811665817168
sS'sound'
p720
F133.14359774934829
sS'colours'
p721
F134.31332273774666
sS'bitmap'
p722
F141.63923859467994
sS'sources'
p723
F207.06873788931293
sS'thanks'
p724
F365.1881417302863
sS'human'
p725
F187.15541420694143
sS'using'
p726
F364.26316923522478
sS'yes'
p727
F213.21782382726971
sS'41'
p728
F179.00041054776486
sS'speed'
p729
F207.06873788931293
sS'yet'
p730
F156.62279306248197
sS'visualization'
p731
F290.53847012838105
sS'mirrors'
p732
F129.76774531409961
sS'wed'
p733
F238.14177354879715
sS'cornell'
p734
F172.64328793966146
sS'seems'
p735
F185.15527813585751
sS'nz'
p736
F264.805000889116
sS'source'
p737
F306.02249645933136
sS'rgb'
p738
F193.55382531403419
sS'book'
p739
F253.83661501681792
sS'4'
F378.65136966914105
sS'easy'
p740
F164.15263443443223
sS'input'
p741
F195.85366734088123
sS'save'
p742
F178.40213553301729
sS'advanced'
p743
F138.44842718469727
sS'nasa'
p744
F330.29939243912742
sS'real'
p745
F278.34478957557536
sS'australia'
p746
F197.33168699745616
sS'around'
p747
F246.56183917055313
sS'format'
p748
F380.53138247612856
sS'read'
p749
F330.01731189540232
sS'big'
p750
F156.62279306248197
sS'couple'
p751
F156.62279306248197
sS'fs7'
p752
F347.45734779815649
sS'utah'
p753
F159.65162426163832
sS'possible'
p754
F219.89482619422836
sS'department'
p755
F174.17109481320807
sS'mon'
p756
F221.26456841387008
sS'world'
p757
F344.9413062192009
sS'bit'
p758
F384.18393102068006
sS'svga'
p759
F155.77807822480753
sS'color'
p760
F379.06291683683975
sS'like'
p761
F356.82452900196779
sS'gifs'
p762
F179.70033591838927
sS'59'
p763
F140.6499531545156
sS'd'
F435.5892472812958
sS'electronic'
p764
F134.31332273774666
sS'eric'
p765
F155.05463946059086
sS'54'
p766
F150.78208958043621
sS'56'
p767
F148.79648231289059
sS'51'
p768
F156.62279306248197
sS'50'
p769
F249.26989380808675
sS'53'
p770
F128.75503299472803
sS'server'
p771
F299.52154989561853
sS'specific'
p772
F180.11258744500404
sS'55'
p773
F142.71805059948957
sS'either'
p774
F246.56183917055313
sS'james'
p775
F142.65026830374359
sS'output'
p776
F247.55747868699115
sS'works'
p777
F209.99885578816958
sS'page'
p778
F156.1782822531938
sS'right'
p779
F222.62367331385857
sS'old'
p780
F194.86018914176245
sS'often'
p781
F146.79088140414555
sS'deal'
p782
F132.15531685812013
sS'people'
p783
F293.04558994371024
sS'manual'
p784
F152.7480950023608
sS'bcstec'
p785
F128.75503299472803
sS'back'
p786
F245.38592185640351
sS'pacific'
p787
F167.81288488852957
sS'oh'
p788
F142.65026830374359
sS'platforms'
p789
F212.88246401399977
sS'printer'
p790
F127.76732849111318
sS'udel'
p791
F314.76599635816945
sS'mirror'
p792
F187.15541420694143
sS'images'
p793
F329.64246223167578
sS'unless'
p794
F132.15531685812013
sS'peter'
p795
F195.7355797436208
sS'radiosity'
p796
F158.53219735358434
sS'batcomputer'
p797
F152.7480950023608
sS'scale'
p798
F178.30372360981431
sS'fonts'
p799
F132.15531685812013
sS'univ'
p800
F167.99142383770734
sS'sura'
p801
F337.97007401638729
sS'thank'
p802
F146.79088140414555
sS'per'
p803
F249.89718907335566
sS'wrong'
p804
F154.69487531814673
sS'umd'
p805
F145.75136109295542
sS'defined'
p806
F153.73860114083692
sS'tmc'
p807
F142.71805059948957
sS'bogus'
p808
F178.40213553301729
sS'provides'
p809
F188.44530032402969
sS'toolkit'
p810
F167.81288488852957
sS'umn'
p811
F144.71835247717297
sS'run'
p812
F277.17380743608447
sS'scientific'
p813
F174.935552581536
sS'bc'
p814
F172.43037741961035
sS'300'
p815
F132.15531685812013
sS'problems'
p816
F227.63320443053337
sS'processing'
p817
F360.2613703307706
sS'paper'
p818
F155.6855583677908
sS'host'
p819
F348.96406874499593
sS'although'
p820
F154.69487531814673
sS'found'
p821
F225.31041663022179
sS'eye'
p822
F138.44842718469727
sS'erotica'
p823
F181.80811665817168
sS'ruu'
p824
F150.12661097705796
sS'ok'
p825
F129.97351208864953
sS'working'
p826
F185.15527813585751
sS'anything'
p827
F231.55611097622864
sS'package'
p828
F360.1935042699784
sS'tracing'
p829
F198.98162327881855
sS'months'
p830
F140.6499531545156
sS'location'
p831
F150.78208958043621
sS'o'
F450.64361261389331
sS'acs'
p832
F154.69487531814673
sS'range'
p833
F142.71805059948957
sS'plus'
p834
F184.48176543255656
sS'oz'
p835
F286.12579514845959
sS'mean'
p836
F138.56012471218691
sS'os'
p837
F219.73839205481823
sS'create'
p838
F199.53256290035219
sS'gamma'
p839
F181.10519819260847
sS'software'
p840
F337.68721535365552
sS'tiff'
p841
F346.57048513354681
sS'within'
p842
F156.62279306248197
sS'washington'
p843
F293.20125737685686
sS'sol'
p844
F155.6855583677908
sS'ppm'
p845
F171.2260299272364
sS'two'
p846
F333.35449225062933
sS'rendering'
p847
F224.96708040137287
sS'decwrl'
p848
F160.70020089792183
sS'references'
p849
F342.07906416468353
sS'ohio'
p850
F580.46434504583272
sS'frames'
p851
F157.9008219398608
sS'caspian'
p852
F160.70020089792183
sS'utility'
p853
F136.44808272531995
sS'rahul'
p854
F164.49794846408085
sS'processor'
p855
F134.31332273774666
sS'compression'
p856
F253.43576800624751
sS'area'
p857
F193.27664540218544
sS'howland'
p858
F318.08713076565294
sS'support'
p859
F323.89764965752039
sS'question'
p860
F227.63320443053337
sS'fast'
p861
F269.32867419018424
sS'start'
p862
F170.83873610614307
sS'newsreader'
p863
F226.6382720270596
sS'modeling'
p864
F127.76732849111318
sS'editor'
p865
F153.73860114083692
sS'lot'
p866
F256.65557657836342
sS'ed'
p867
F224.64993875013488
sS'tamu'
p868
F149.23290711121456
sS'files'
p869
F372.26890097220416
sS'zip'
p870
F272.34983035265174
sS'north'
p871
F134.31332273774666
sS'complete'
p872
F171.40647426061747
sS'form'
p873
F209.63547747758523
sS'enough'
p874
F165.99123228884216
sS'great'
p875
F191.67977024299117
sS'hp'
p876
F329.86466347469582
sS'memory'
p877
F226.34688721327595
sS'sdd'
p878
F169.61787453015978
sS'gatech'
p879
F310.48149951830146
sS'hi'
p880
F281.76372800942835
sS'library'
p881
F313.17161145403298
sS'remote'
p882
F129.97351208864953
sS'line'
p883
F366.33924792710314
sS'trying'
p884
F150.78208958043621
sS'true'
p885
F201.06448994477586
sS'posted'
p886
F181.80811665817168
sS'info'
p887
F338.12068533072397
sS'wisc'
p888
F170.60976630333838
sS'made'
p889
F183.48894254836168
sS'converter'
p890
F165.99123228884216
sS'places'
p891
F139.50032621265709
sS'versions'
p892
F173.17894832421533
sS'uu'
p893
F127.76732849111318
sS'inside'
p894
F127.76732849111318
sS'j'
F254.07214917875407
sS'us'
p895
F254.31140788746018
sS'cis'
p896
F362.79521760667296
sS'mcsun'
p897
F215.72061952187585
sS'dresden'
p898
F158.53219735358434
sS'uk'
p899
F404.5255998079985
sS'export'
p900
F150.79674904357552
sS'distribution'
p901
F328.94309168285753
sS'z'
F402.75374333069681
sS'similar'
p902
F161.41460094183134
sS'display'
p903
F376.6082535987843
sS'ac'
p904
F369.20039693968818
sS'computing'
p905
F221.26456841387008
sS'ai'
p906
F154.74834160540621
sS'm'
F375.16813242970085
sS'convex'
p907
F145.75136109295542
sS'doesn'
p908
F220.88948808208593
sS'general'
p909
F207.06873788931293
sS'postscript'
p910
F261.76092399049446
sS'engineering'
p911
F189.43841951755789
sS'au'
p912
F455.54790084196696
sS'8bit'
p913
F132.15531685812013
sS'file'
p914
F248.64939705141532
sS'cview'
p915
F197.85000930448095
sS'inf'
p916
F158.53219735358434
sS'check'
p917
F238.90226245540904
sS'inc'
p918
F287.97438711855301
sS'functions'
p919
F176.67653490212126
sS'uucp'
p920
F318.60720519253175
sS'nl'
p921
F329.03577091074487
sS'polygon'
p922
F297.0707995987824
sS'48'
p923
F206.57991770839973
sS'49'
p924
F192.67307374756959
sS'46'
p925
F138.56012471218691
sS'47'
p926
F167.17940811832531
sS'drivers'
p927
F196.29718783753094
sS'45'
p928
F173.40664771814721
sS'42'
p929
F246.02122103958226
sS'43'
p930
F168.80464300560217
sS'virtual'
p931
F203.57779606908554
sS'reality'
p932
F167.81288488852957
sS'application'
p933
F219.12305038732035
sS'tin'
p934
F226.6382720270596
sS'interested'
p935
F239.37199884932329
sS'5'
F372.97894301317604
sS'details'
p936
F181.42556491108272
sS'normal'
p937
F135.30187202140871
sS'digital'
p938
F222.25928669094051
sS'test'
p939
F167.81288488852957
sS'arithmetic'
p940
F144.7648790818325
sS'nice'
p941
F191.67977024299117
sS'canada'
p942
F194.86018914176245
sS'draw'
p943
F191.335760636055
sS'users'
p944
F262.00963425165929
sS'ftp'
p945
F366.55523142246852
sS'models'
p946
F144.7648790818325
sS'setting'
p947
F185.15527813585751
sS'vertex'
p948
F194.20249869096912
sS'utilities'
p949
F248.56189047075679
sS'includes'
p950
F201.06448994477586
sS'diablo'
p951
F175.82661888306626
sS'ubc'
p952
F129.74264220083933
sS'chris'
p953
F211.31579897305608
sS'pex'
p954
F129.97351208864953
sS'13'
p955
F303.00461997035069
sS'ago'
p956
F140.6499531545156
sS'e'
F387.11741048598452
sS'faster'
p957
F186.14820258529446
sS'algorithm'
p958
F268.31501805113095
sS'requires'
p959
F199.53256290035219
sS'martin'
p960
F132.15531685812013
sS'dave'
p961
F132.96945362104108
sS'hello'
p962
F150.78208958043621
sS'write'
p963
F282.84985261924868
sS'u'
F358.87773853110809
sS'time'
p964
F358.25586129983583
sS'directory'
p965
F303.7253269945337
sS'international'
p966
F140.6499531545156
sS'resolution'
p967
F191.91744883097314
sS'original'
p968
F254.55184234411453
sS'hand'
p969
F127.76732849111318
s.