(dp1
S''
F484.25717322104407
sS'gw'
p2
F106.70260066165473
sS'dsu'
p3
F177.39069362404257
sS'consider'
p4
F141.63923859467994
sS'nwu'
p5
F96.972237664488972
sS'rob'
p6
F176.93571536579867
sS'month'
p7
F99.132864571878571
sS'steve'
p8
F170.06181170657229
sS'ge'
p9
F171.40647426061747
sS'disc'
p10
F104.21304223490974
sS'edt'
p11
F96.539870757787185
sS'go'
p12
F174.7469446800028
sS'alt'
p13
F167.43541182951088
sS'disk'
p14
F275.35842062727789
sS'sega'
p15
F171.88224066885522
sS'rom'
p16
F111.58602689407719
sS'scott'
p17
F105.19673691959946
sS'wolverine'
p18
F295.99220187771681
sS'everything'
p19
F125.53615716985982
sS'tv'
p20
F116.34827191841094
sS'iii'
p21
F107.68681030940672
sS'flash'
p22
F96.539870757787185
sS'02106'
p23
F165.99123228884216
sS'send'
p24
F296.49377158990194
sS'tn'
p25
F114.96742164844318
sS'0'
F325.92812395032394
sS'program'
p26
F119.67250825893697
sS'umass'
p27
F122.72952640619937
sS'ti'
p28
F93.8885521302755
sS'dartmouth'
p29
F173.17894832421533
sS'include'
p30
F202.58391856914861
sS'screen'
p31
F99.132864571878571
sS'worth'
p32
F129.97351208864953
sS'sent'
p33
F104.21304223490974
sS'ucsd'
p34
F164.29700453007831
sS'sound'
p35
F190.86557774022816
sS'fax'
p36
F198.43068927957705
sS'mpc'
p37
F129.76774531409961
sS'1990'
p38
F120.9962574124628
sS'sage'
p39
F99.132864571878571
sS'account'
p40
F148.79648231289059
sS'cunixb'
p41
F101.69017902227947
sS'every'
p42
F104.21304223490974
sS'mps'
p43
F388.88744167926325
sS'uwm'
p44
F246.381523010487
sS'got'
p45
F191.06259616186344
sS'sony'
p46
F206.16175509566446
sS'ticket'
p47
F119.39367011304799
sS'condition'
p48
F353.82748014576021
sS'ibm'
p49
F287.41791350146525
sS'tickets'
p50
F101.69017902227947
sS'four'
p51
F121.98298255450275
sS'school'
p52
F111.58602689407719
sS'cable'
p53
F208.5396785319335
sS'primate'
p54
F123.27935804839464
sS'list'
p55
F310.78325008375106
sS'manager'
p56
F99.132864571878571
sS'large'
p57
F152.7480950023608
sS'p'
F197.33168699745616
sS'jhu'
p58
F151.03464783785157
sS'red'
p59
F101.69017902227947
sS'car'
p60
F294.74116142851233
sS'small'
p61
F147.780814062704
sS'ups'
p62
F104.21304223490974
sS'force'
p63
F196.2880592339329
sS'portable'
p64
F129.97351208864953
sS'radley'
p65
F95.417820640595536
sS'miller'
p66
F152.7480950023608
sS'd'
F380.84033348809191
sS'blue'
p67
F106.70260066165473
sS'battle'
p68
F95.910865806962349
sS'lehigh'
p69
F145.98871347836209
sS'video'
p70
F358.52093634535635
sS'voucher'
p71
F94.306526576324686
sS'run'
p72
F101.69017902227947
sS'n'
F218.73766180535372
sS'port'
p73
F162.05320689542015
sS'even'
p74
F150.78208958043621
sS'appear'
p75
F156.62279306248197
sS'wide'
p76
F101.69017902227947
sS'sun'
p77
F336.72601502291513
sS'hp'
p78
F285.23665930666141
sS'netnews'
p79
F217.74805347828845
sS'access'
p80
F228.95090745590716
sS'version'
p81
F197.88045411912555
sS'usenet'
p82
F420.55344957689334
sS'gld'
p83
F104.21304223490974
sS'frank'
p84
F117.33425261224532
sS'new'
p85
F341.9020113290361
sS'net'
p86
F286.4591969557984
sS'public'
p87
F139.54917551453178
sS'ksu'
p88
F156.48092021712583
sS'meg'
p89
F231.16277843057969
sS'full'
p90
F220.51441106680642
sS'lee'
p91
F167.81288488852957
sS'ma'
p92
F136.44808272531995
sS'never'
p93
F234.12170794750764
sS'hours'
p94
F93.242536215854784
sS'corporation'
p95
F101.69017902227947
sS'let'
p96
F181.80811665817168
sS'hiram'
p97
F264.80276602095245
sS'berkeley'
p98
F213.87682487634586
sS'alone'
p99
F93.909878737423014
sS'100'
p100
F271.33858966921548
sS'101'
p101
F91.241468524016383
sS'appears'
p102
F281.76372800942835
sS'box'
p103
F276.25938841920237
sS'39'
p104
F171.40647426061747
sS'38'
p105
F159.52321515623163
sS'sender'
p106
F341.74947011142012
sS'tapes'
p107
F149.78661367769953
sS'33'
p108
F205.08495460086647
sS'items'
p109
F229.26347621408775
sS'31'
p110
F165.99123228884216
sS'30'
p111
F334.62456293471649
sS'37'
p112
F158.53219735358434
sS'36'
p113
F152.7480950023608
sS'35'
p114
F273.30921994784069
sS'34'
p115
F159.52321515623163
sS'engine'
p116
F96.539870757787185
sS'mentor'
p117
F178.40213553301729
sS'pick'
p118
F93.909878737423014
sS'oplinger'
p119
F110.66638362341808
sS'bob'
p120
F108.35755238933424
sS'midway'
p121
F91.241468524016383
sS'macintosh'
p122
F111.58602689407719
sS'holmes'
p123
F103.69097229540105
sS'munroe'
p124
F105.93809030807394
sS'via'
p125
F142.71805059948957
sS'love'
p126
F117.02865879020196
sS'apple'
p127
F204.63110607022031
sS'extra'
p128
F121.98298255450275
sS'peachnet'
p129
F132.15531685812013
sS'app'
p130
F185.15527813585751
sS'prefer'
p131
F104.21304223490974
sS'unix'
p132
F302.68368843967954
sS'fiabane'
p133
F103.05124629184317
sS'1st'
p134
F348.53163882939941
sS'total'
p135
F114.96742164844318
sS'univ'
p136
F106.70260066165473
sS'research'
p137
F160.42342462426487
sS'market'
p138
F304.28520184081503
sS'jpl'
p139
F104.21304223490974
sS'1993apr22'
p140
F113.9818453947526
sS'1993apr23'
p141
F127.76732849111318
sS'1993apr20'
p142
F136.44808272531995
sS'hobgoblin'
p143
F176.67653490212126
sS'usc'
p144
F344.22948859637768
sS'would'
p145
F333.97861812863903
sS'army'
p146
F106.70260066165473
sS'super'
p147
F168.80464300560217
sS'contains'
p148
F116.34827191841094
sS'two'
p149
F255.65965268038582
sS'next'
p150
F138.41166046933262
sS'live'
p151
F108.70329481691944
sS'camera'
p152
F169.28873148023604
sS'music'
p153
F365.19952830625328
sS'6'
F373.15182053078399
sS'black'
p154
F223.97225284596044
sS'koutd'
p155
F134.31332273774666
sS'jonathan'
p156
F130.96151170339101
sS'type'
p157
F118.68614518816484
sS'athena'
p158
F100.11542152659412
sS'turbo'
p159
F120.37562126585254
sS'door'
p160
F94.89112726497703
sS'posting'
p161
F341.08442645565805
sS'hirama'
p162
F118.34881640280915
sS'advance'
p163
F93.909878737423014
sS'club'
p164
F327.2966599094363
sS'company'
p165
F140.6499531545156
sS'chopin'
p166
F96.539870757787185
sS'problem'
p167
F107.26652306420799
sS'gtefsd'
p168
F341.93503023093359
sS'phone'
p169
F264.18463082603995
sS'excellent'
p170
F287.97438711855301
sS'90'
p171
F167.81288488852957
sS'93'
p172
F361.92928353603281
sS'95'
p173
F195.27676393334755
sS'must'
p174
F171.40647426061747
sS'150'
p175
F194.86018914176245
sS'ii'
p176
F233.8487457383695
sS'1993'
p177
F257.53879691721437
sS'1992'
p178
F121.98298255450275
sS'word'
p179
F143.68401967293829
sS'room'
p180
F155.6855583677908
sS'f'
F187.99765538752098
sS'science'
p181
F142.71805059948957
sS'originally'
p182
F101.69017902227947
sS'work'
p183
F225.31041663022179
sS'printing'
p184
F125.53615716985982
sS'ms'
p185
F178.67669271546023
sS'v'
F264.84230391457373
sS'following'
p186
F274.25935440455561
sS'reston'
p187
F358.72811127546743
sS'institute'
p188
F167.81288488852957
sS'cae'
p189
F104.21304223490974
sS'something'
p190
F93.909878737423014
sS'control'
p191
F171.40647426061747
sS'purchased'
p192
F113.9818453947526
sS'give'
p193
F116.34827191841094
sS'cwru'
p194
F239.46884967138078
sS'chip'
p195
F115.98242239553234
sS'days'
p196
F106.70260066165473
sS'high'
p197
F218.11751529434113
sS'emory'
p198
F138.56012471218691
sS'o'
F402.14069707496469
sS'want'
p199
F273.32875387471364
sS'serial'
p200
F188.17733016642211
sS'bag'
p201
F96.539870757787185
sS'information'
p202
F165.99123228884216
sS'nyx'
p203
F148.79648231289059
sS'end'
p204
F112.57117467801669
sS'eng'
p205
F377.0221841293303
sS'mouse'
p206
F111.58602689407719
sS'travel'
p207
F105.62462114655995
sS'machine'
p208
F194.27003740843699
sS'samba'
p209
F109.15992696050102
sS'amazing'
p210
F116.34827191841094
sS'panasonic'
p211
F93.909878737423014
sS'linac'
p212
F109.15992696050102
sS'may'
p213
F196.29718783753094
sS'manuals'
p214
F208.5396785319335
sS'cso'
p215
F178.58860518459645
sS'mac'
p216
F349.4732525606284
sS'records'
p217
F93.909878737423014
sS'data'
p218
F135.30187202140871
sS'fm'
p219
F125.27981992084068
sS'man'
p220
F279.25072472931549
sS'purchase'
p221
F101.69017902227947
sS'workstation'
p222
F99.132864571878571
sS'light'
p223
F106.70260066165473
sS'andrew'
p224
F336.87108475325715
sS'su'
p225
F114.96742164844318
sS'st'
p226
F111.58602689407719
sS'green'
p227
F144.7648790818325
sS'things'
p228
F109.15992696050102
sS'ethernet'
p229
F104.21304223490974
sS'scsi'
p230
F219.50893657784491
sS'first'
p231
F227.70509838420227
sS'order'
p232
F164.15263443443223
sS'jack'
p233
F146.76516850905978
sS'origin'
p234
F111.58602689407719
sS'help'
p235
F127.76732849111318
sS'office'
p236
F111.58602689407719
sS'deck'
p237
F121.73021115717512
sS'john'
p238
F205.08495460086647
sS'rupin'
p239
F143.02203075227732
sS'years'
p240
F199.53256290035219
sS'130'
p241
F101.69017902227947
sS'including'
p242
F174.935552581536
sS'keyboard'
p243
F187.80035353779834
sS'still'
p244
F226.30529714643919
sS'aludra'
p245
F159.52321515623163
sS'perfect'
p246
F165.14411156927162
sS'25'
p247
F366.86595094523824
sS'26'
p248
F299.52154989561853
sS'27'
p249
F253.3071825186023
sS'20'
p250
F335.4554563893966
sS'monitor'
p251
F247.7289851057138
sS'22'
p252
F362.55094866788471
sS'23'
p253
F368.50442878446131
sS'll'
p254
F219.89482619422836
sS'jim'
p255
F116.34827191841094
sS'28'
p256
F202.58391856914861
sS'29'
p257
F227.63320443053337
sS'writing'
p258
F110.14462003783714
sS'willing'
p259
F160.42342462426487
sS'systems'
p260
F194.86018914176245
sS'2400'
p261
F113.9818453947526
sS'400'
p262
F106.70260066165473
sS'mail'
p263
F369.49231157357411
sS'texas'
p264
F104.21304223490974
sS'408'
p265
F163.4511890154003
sS'originator'
p266
F120.9962574124628
sS'non'
p267
F116.34827191841094
sS'good'
p268
F344.35591960893868
sS'return'
p269
F93.909878737423014
sS'jvnc'
p270
F182.87169658940238
sS'auto'
p271
F125.27981992084068
sS'synth'
p272
F111.16057838390371
sS'noc'
p273
F347.45734779815649
sS'inch'
p274
F109.15992696050102
sS'das'
p275
F348.89207482335183
sS'front'
p276
F168.22448143748062
sS'day'
p277
F140.56045402787441
sS'newsserver'
p278
F106.70260066165473
sS'name'
p279
F124.26642653171854
sS'hiramb'
p280
F124.26642653171854
sS'purdue'
p281
F384.05201338495539
sS'ns1'
p282
F93.909878737423014
sS'james'
p283
F98.54078600593769
sS'university'
p284
F322.28091394449064
sS'l'
F169.61787453015978
sS'someone'
p285
F143.70756083178767
sS'mcfarlane'
p286
F109.15992696050102
sS'reasonable'
p287
F129.76774531409961
sS'rock'
p288
F101.69017902227947
sS'85'
p289
F110.14462003783714
sS'ports'
p290
F135.30187202140871
sS'1993apr16'
p291
F116.34827191841094
sS'heavy'
p292
F106.70260066165473
sS'week'
p293
F94.89112726497703
sS'storage'
p294
F102.19044474689835
sS'ed'
p295
F127.76732849111318
sS'hard'
p296
F293.86882266441069
sS'spider'
p297
F165.99123228884216
sS'books'
p298
F236.4460496712133
sS'year'
p299
F208.06283233166118
sS'navy'
p300
F156.6951127012376
sS'80'
p301
F290.11671275292252
sS'special'
p302
F148.79648231289059
sS'really'
p303
F177.24487515588228
sS'canada'
p304
F96.539870757787185
sS'leave'
p305
F127.76732849111318
sS'jackson'
p306
F92.221986352848404
sS'network'
p307
F186.14820258529446
sS'3rd'
p308
F93.909878737423014
sS'space'
p309
F160.42342462426487
sS'open'
p310
F109.15992696050102
sS'robert'
p311
F122.996744599463
sS'since'
p312
F146.79088140414555
sS'douglas'
p313
F106.70260066165473
sS'mason'
p314
F123.27935804839464
sS'looking'
p315
F259.93019270997945
sS're'
p316
F329.34789266855955
sS'vcr'
p317
F101.13371556337863
sS'miles'
p318
F149.78661367769953
sS'hcf'
p319
F101.85104870243066
sS'ra'
p320
F120.9962574124628
sS'7'
F359.77402843020167
sS'internet'
p321
F228.01495543957259
sS'print'
p322
F145.75460486756381
sS'rec'
p323
F523.18362831951572
sS'gov'
p324
F214.68693476620172
sS'issue'
p325
F189.21438617138199
sS'clone'
p326
F312.70883110991736
sS'math'
p327
F156.62279306248197
sS'ece'
p328
F341.51000291795572
sS'ecn'
p329
F165.11081457269222
sS'story'
p330
F111.58602689407719
sS'hulk'
p331
F271.04503479635838
sS'standard'
p332
F136.44808272531995
sS'base'
p333
F123.27935804839464
sS'california'
p334
F165.99123228884216
sS'york'
p335
F106.70260066165473
sS'x'
F393.98846836516697
sS'ask'
p336
F152.7480950023608
sS'org'
p337
F196.29718783753094
sS'wanted'
p338
F366.99855241056503
sS'keith'
p339
F111.58602689407719
sS'card'
p340
F331.86925772767313
sS'snes'
p341
F106.70260066165473
sS'uiuc'
p342
F196.81004548381102
sS'g'
F153.73860114083692
sS'could'
p343
F163.28812863541245
sS'computers'
p344
F602.20101060141803
sS'florida'
p345
F120.9962574124628
sS'catalog'
p346
F110.14462003783714
sS'david'
p347
F210.24388828453317
sS'thing'
p348
F140.6499531545156
sS'att'
p349
F273.70208923552542
sS'wright'
p350
F99.599745261076279
sS'w'
F356.2832662087967
sS'isc'
p351
F122.996744599463
sS'moving'
p352
F106.70260066165473
sS'dec'
p353
F244.69129187684561
sS'austin'
p354
F149.23290711121456
sS'think'
p355
F179.39463543907698
sS'wpi'
p356
F204.31398626925039
sS'feed'
p357
F152.7480950023608
sS'mr'
p358
F104.21304223490974
sS'features'
p359
F129.97351208864953
sS'dino'
p360
F105.62330976548365
sS'mit'
p361
F188.26636462060327
sS'number'
p362
F162.29679930083591
sS'one'
p363
F392.08849176945415
sS'fast'
p364
F109.15992696050102
sS'another'
p365
F127.76732849111318
sS'owner'
p366
F113.9818453947526
sS'comic'
p367
F136.44990870062628
sS'1989'
p368
F93.909878737423014
sS'electronic'
p369
F116.34827191841094
sS'xt'
p370
F107.68681030940672
sS'size'
p371
F188.17733016642211
sS'min'
p372
F99.132864571878571
sS'little'
p373
F150.79674904357552
sS'reference'
p374
F93.909878737423014
sS'service'
p375
F208.06283233166118
sS'utexas'
p376
F342.03591907402028
sS'top'
p377
F125.53615716985982
sS'ctr'
p378
F116.34827191841094
sS'system'
p379
F372.10022012265767
sS'least'
p380
F101.69017902227947
sS'parallel'
p381
F113.9818453947526
sS'anyone'
p382
F148.79648231289059
sS'master'
p383
F132.15531685812013
sS'listed'
p384
F91.241468524016383
sS'tom'
p385
F93.909878737423014
sS'white'
p386
F148.79115913563805
sS'circa'
p387
F158.53219735358434
sS'kou'
p388
F104.21304223490974
sS'genesis'
p389
F180.11258744500404
sS'friend'
p390
F154.69487531814673
sS'free'
p391
F194.86018914176245
sS'1988'
p392
F104.21304223490974
sS'selling'
p393
F231.84868165675513
sS'lot'
p394
F142.71805059948957
sS'floppy'
p395
F224.62374718765264
sS'cup'
p396
F110.84207383301492
sS'hotel'
p397
F114.96742164844318
sS'mnemosyne'
p398
F142.71805059948957
sS'part'
p399
F120.9962574124628
sS'western'
p400
F109.15992696050102
sS'auburn'
p401
F103.28862471519021
sS'copy'
p402
F224.96708040137287
sS'haven'
p403
F127.76732849111318
sS'11'
p404
F321.16347908148839
sS'10'
p405
F334.19088342239183
sS'1993apr15'
p406
F127.76732849111318
sS'12'
p407
F344.25680885962885
sS'15'
p408
F357.33142797479798
sS'14'
p409
F343.33920821921936
sS'17'
p410
F348.40622335897541
sS'16'
p411
F382.97742978703513
sS'19'
p412
F326.53486159907385
sS'18'
p413
F344.35432858818075
sS'grey'
p414
F104.21304223490974
sS'1993apr19'
p415
F96.539870757787185
sS'cost'
p416
F141.59498234798585
sS'magnesium'
p417
F322.69596288299789
sS'maybe'
p418
F91.241468524016383
sS'dang'
p419
F147.27543168743924
sS'college'
p420
F246.20120869901791
sS'clemson'
p421
F116.94009295464261
sS'tamu'
p422
F91.601107814971712
sS'weapon'
p423
F113.9818453947526
sS'collecting'
p424
F109.15992696050102
sS'hz'
p425
F114.50138476871463
sS'san'
p426
F134.09628869970894
sS'sam'
p427
F118.34881640280915
sS'wupost'
p428
F196.43057682652602
sS'pro'
p429
F137.43688838281054
sS'ram'
p430
F222.55893965099975
sS'2001'
p431
F93.909878737423014
sS'needs'
p432
F126.52355168124713
sS'keown'
p433
F116.34827191841094
sS'buy'
p434
F185.15527813585751
sS'ans'
p435
F359.98848973412601
sS'need'
p436
F257.75522360399555
sS'mint'
p437
F183.97203383316213
sS'sat'
p438
F204.09100303721419
sS'0400'
p439
F123.27935804839464
sS'speakers'
p440
F165.87642394793306
sS'xref'
p441
F366.64950941308905
sS'rochester'
p442
F375.80188945501084
sS'built'
p443
F141.59498234798585
sS'magnus'
p444
F308.78560846924705
sS'ncsu'
p445
F140.6499531545156
sS'offer'
p446
F369.88589977319936
sS'vga'
p447
F168.80464300560217
sS'makers'
p448
F136.75575799547929
sS'note'
p449
F99.132864571878571
sS'equipment'
p450
F167.99142383770734
sS'contact'
p451
F227.95592420641054
sS'take'
p452
F183.1356566087955
sS'online'
p453
F116.34827191841094
sS'mutants'
p454
F140.6172721279973
sS'rider'
p455
F191.67977024299117
sS'channel'
p456
F146.76516850905978
sS'200'
p457
F165.14411156927162
sS'play'
p458
F127.76732849111318
sS'printer'
p459
F237.40937643257809
sS'unless'
p460
F120.9962574124628
sS'sura'
p461
F344.2905431273507
sS'track'
p462
F93.242536215854784
sS'elm'
p463
F140.6499531545156
sS'price'
p464
F375.96107414468196
sS'digex'
p465
F154.50603959367362
sS'paid'
p466
F199.53256290035219
sS'khoh'
p467
F96.539870757787185
sS'75'
p468
F245.19671766094876
sS'letter'
p469
F97.521797150400815
sS'70'
p470
F223.97225284596044
sS'services'
p471
F118.68614518816484
sS'america'
p472
F116.34827191841094
sS'class'
p473
F106.70260066165473
sS'volume'
p474
F93.909878737423014
sS'stereo'
p475
F220.51441106680642
sS'modem'
p476
F245.00751536405903
sS'elroy'
p477
F93.909878737423014
sS'350'
p478
F118.68614518816484
sS'windows'
p479
F228.95090745590716
sS'upenn'
p480
F163.67613054417964
sS'cover'
p481
F315.84287619454204
sS'drive'
p482
F373.05931702775825
sS'sf'
p483
F113.9818453947526
sS'dos'
p484
F349.59173558853996
sS'left'
p485
F167.81288488852957
sS'mailing'
p486
F96.539870757787185
sS'microsoft'
p487
F113.9818453947526
sS'came'
p488
F123.27935804839464
sS'marvel'
p489
F162.29679930083591
sS'gold'
p490
F118.68614518816484
sS'opinions'
p491
F96.539870757787185
sS'presents'
p492
F99.132864571878571
sS'please'
p493
F368.79179913240904
sS'cheap'
p494
F188.80746262222723
sS'radio'
p495
F201.06448994477586
sS'sunysb'
p496
F136.31368341004705
sS'cds'
p497
F128.75503299472803
sS'keywords'
p498
F257.85075116829961
sS'fine'
p499
F101.69017902227947
sS'find'
p500
F152.7480950023608
sS'ogicse'
p501
F183.48894254836168
sS'current'
p502
F104.21304223490974
sS'upgrade'
p503
F94.89112726497703
sS'title'
p504
F146.79088140414555
sS'series'
p505
F180.11258744500404
sS'writes'
p506
F218.51433229625704
sS'3'
F126.51135049878722
sS'going'
p507
F111.58602689407719
sS'tape'
p508
F244.25772382967168
sS'money'
p509
F161.7695427719155
sS'8'
F366.02847798139317
sS'darwin'
p510
F274.25935440455561
sS'local'
p511
F143.70756083178767
sS'acns'
p512
F92.717588190209142
sS'carolina'
p513
F101.69017902227947
sS'1993apr17'
p514
F99.132864571878571
sS'1993apr6'
p515
F113.9818453947526
sS'get'
p516
F329.49444180567201
sS'arts'
p517
F166.27214965462429
sS'dc'
p518
F215.75613125378484
sS'simms'
p519
F113.9818453947526
sS'b'
F261.07707691294002
sS'125'
p520
F113.9818453947526
sS'reply'
p521
F328.17539464969116
sS'buyer'
p522
F117.33425261224532
sS'trade'
p523
F248.39943377668772
sS'dr'
p524
F121.98298255450275
sS'sleeve'
p525
F118.68614518816484
sS'h'
F215.89990248011941
sS'decwrl'
p526
F105.19673691959946
sS'geoffrey'
p527
F109.15992696050102
sS'summary'
p528
F164.15263443443223
sS'415'
p529
F99.132864571878571
sS'bad'
p530
F96.539870757787185
sS'stuff'
p531
F206.09110219339524
sS'crd'
p532
F148.79648231289059
sS'double'
p533
F111.58602689407719
sS'ohio'
p534
F384.62282998488405
sS'crl'
p535
F113.44866715741624
sS'us'
p536
F320.25870888309629
sS'respond'
p537
F144.7648790818325
sS'set'
p538
F199.98808885601935
sS'art'
p539
F304.36654618892123
sS'concert'
p540
F99.132864571878571
sS'fair'
p541
F97.521797150400815
sS'motherboard'
p542
F163.28812863541245
sS'replies'
p543
F96.539870757787185
sS'package'
p544
F262.07316045049032
sS'edition'
p545
F171.40647426061747
sS'see'
p546
F125.53615716985982
sS'computer'
p547
F349.8901492761932
sS'zaphod'
p548
F361.42975253379001
sS'vhs'
p549
F132.15531685812013
sS'acs'
p550
F312.70883110991736
sS'sei'
p551
F357.74568888446737
sS'02'
p552
F204.09100303721419
sS'03'
p553
F160.53241778298246
sS'01'
p554
F205.08495460086647
sS'06'
p555
F184.48176543255656
sS'07'
p556
F149.78661367769953
sS'04'
p557
F183.48894254836168
sS'05'
p558
F206.57991770839973
sS'lots'
p559
F105.19673691959946
sS'movie'
p560
F110.84207383301492
sS'08'
p561
F144.7648790818325
sS'09'
p562
F190.44542893973917
sS'bitnet'
p563
F165.11081457269222
sS'quality'
p564
F108.70329481691944
sS'state'
p565
F289.43205503651774
sS'r'
F254.43162434401091
sS'jth'
p566
F116.34827191841094
sS'call'
p567
F313.53292581785195
sS'probably'
p568
F101.69017902227947
sS'nntp'
p569
F344.75678678045404
sS'email'
p570
F345.52683308328136
sS'ingr'
p571
F117.02865879020196
sS'bought'
p572
F171.40647426061747
sS'available'
p573
F190.06938356179162
sS'24'
p574
F336.56552080872513
sS'men'
p575
F156.62279306248197
sS'europa'
p576
F343.99826781912333
sS'missing'
p577
F120.9962574124628
sS'comp'
p578
F389.83642827352395
sS'sold'
p579
F210.99308651466214
sS'maine'
p580
F146.59758152108427
sS'metal'
p581
F117.02865879020196
sS'cards'
p582
F158.62302173322084
sS'harvard'
p583
F369.16004598573738
sS'386'
p584
F140.6499531545156
sS'agate'
p585
F200.52628669469414
sS'article'
p586
F287.1068449576851
sS'ames'
p587
F101.69017902227947
sS'come'
p588
F144.7648790818325
sS'tue'
p589
F208.5396785319335
sS'21'
p590
F366.63950749362067
sS'received'
p591
F99.132864571878571
sS'c'
F334.38569347792571
sS'last'
p592
F181.10519819260847
sS'many'
p593
F154.69487531814673
sS'adapter'
p594
F136.44808272531995
sS'panther'
p595
F127.76732849111318
sS'jrm'
p596
F116.34827191841094
sS'thor'
p597
F99.132864571878571
sS'watts'
p598
F95.119591195576717
sS'etc'
p599
F294.91416897808517
sS'unc'
p600
F174.17109481320807
sS'games'
p601
F362.53593145394541
sS'cod'
p602
F144.7648790818325
sS'item'
p603
F97.521797150400815
sS'rose'
p604
F117.33425261224532
sS'whole'
p605
F125.1116059115411
sS'comes'
p606
F181.80811665817168
sS'otherwise'
p607
F116.34827191841094
sS'ucs'
p608
F182.72659190622898
sS'supply'
p609
F125.53615716985982
sS'cc'
p610
F389.40002457399476
sS'cb'
p611
F180.11258744500404
sS'ca'
p612
F367.67411701671494
sS'address'
p613
F213.87682487634586
sS'marketplace'
p614
F295.76833702733012
sS'uunet'
p615
F336.13070568493208
sS'cd'
p616
F351.95019902816654
sS'60'
p617
F257.6596974730183
sS'pom'
p618
F118.68614518816484
sS'65'
p619
F104.21304223490974
sS'rpi'
p620
F184.48176543255656
sS'69'
p621
F97.521797150400815
sS'250'
p622
F193.67989199969719
sS'uci'
p623
F100.70193911312317
sS'save'
p624
F107.68681030940672
sS'punisher'
p625
F158.53219735358434
sS'marc'
p626
F103.69097229540105
sS'west'
p627
F110.84207383301492
sS'fri'
p628
F240.59296553767962
sS'af'
p629
F100.70193911312317
sS'copies'
p630
F239.37199884932329
sS'amiga'
p631
F202.58391856914861
sS'mark'
p632
F186.51132351179081
sS'pc'
p633
F392.58791438994632
sS'much'
p634
F192.06950867752397
sS'sabretooth'
p635
F205.58589385152234
sS'technical'
p636
F95.417820640595536
sS'bbs'
p637
F147.88809267456301
sS'500'
p638
F162.29679930083591
sS'board'
p639
F190.44542893973917
sS'followup'
p640
F227.95592420641054
sS'mike'
p641
F225.08744205370215
sS'wheaton'
p642
F108.35755238933424
sS'flight'
p643
F116.34827191841094
sS'great'
p644
F280.13634057036757
sS'netcom'
p645
F169.01753665770764
sS'1200'
p646
F104.21304223490974
sS'offers'
p647
F228.63834144691793
sS'controller'
p648
F202.05829154466045
sS'external'
p649
F176.93571536579867
sS'graphics'
p650
F159.52321515623163
sS'prices'
p651
F186.30159989378205
sS'ins'
p652
F211.44640641184193
sS'bb3'
p653
F236.9022031191445
sS'case'
p654
F245.38592185640351
sS'georgia'
p655
F114.41762460182186
sS'look'
p656
F118.68614518816484
sS'spiderman'
p657
F109.15992696050102
sS'appearance'
p658
F152.7480950023608
sS'single'
p659
F104.21304223490974
sS'air'
p660
F120.9962574124628
sS'dept'
p661
F187.15541420694143
sS'near'
p662
F360.01137767478627
sS'rutgers'
p663
F104.74563397635643
sS'32'
p664
F233.8487457383695
sS'jay'
p665
F119.22296850887938
sS'voice'
p666
F137.43688838281054
sS'leland'
p667
F148.85245388216723
sS'guide'
p668
F201.06448994477586
sS'saimiri'
p669
F123.27935804839464
sS'annual'
p670
F215.72061952187585
sS've'
p671
F202.05829154466045
sS'vf'
p672
F106.70260066165473
sS'best'
p673
F309.78597241128671
sS'freenet'
p674
F111.58602689407719
sS'rit'
p675
F120.68665982973803
sS'hardware'
p676
F172.60391948295307
sS'player'
p677
F151.95354667137903
sS'unit'
p678
F181.80811665817168
sS'vs'
p679
F231.84868165675513
sS'vt'
p680
F105.19673691959946
sS'dual'
p681
F113.9818453947526
sS'engr'
p682
F103.28862471519021
sS'pics'
p683
F104.21304223490974
sS'technology'
p684
F165.99123228884216
sS'trek'
p685
F116.34827191841094
sS'800'
p686
F115.98242239553234
sS'albany'
p687
F113.9818453947526
sS'design'
p688
F93.909878737423014
sS'pay'
p689
F208.06283233166118
sS'make'
p690
F309.78597241128671
sS'norton'
p691
F103.69097229540105
sS'eric'
p692
F122.996744599463
sS'parts'
p693
F99.132864571878571
sS'speaker'
p694
F94.89112726497703
sS'docs'
p695
F112.57117467801669
sS'9'
F323.84258533022194
sS'superman'
p696
F96.539870757787185
sS'development'
p697
F118.68614518816484
sS'sell'
p698
F333.10810117855061
sS'used'
p699
F339.4951490836155
sS'columbia'
p700
F312.61194416328038
sS'receiver'
p701
F113.58663941401956
sS'drives'
p702
F192.67307374756959
sS'possible'
p703
F91.241468524016383
sS'sys'
p704
F321.83720162765712
sS'000'
p705
F225.40140169263293
sS'portal'
p706
F159.70916061389147
sS'user'
p707
F160.42342462426487
sS'student'
p708
F119.67250825893697
sS'oit'
p709
F140.6499531545156
sS'caen'
p710
F197.98797926817903
sS'mil'
p711
F229.53363307078999
sS'center'
p712
F145.75460486756381
sS'band'
p713
F99.132864571878571
sS'thu'
p714
F234.39467259775984
sS'49'
p715
F182.80083501881006
sS'well'
p716
F272.36276607465209
sS'boxes'
p717
F104.21304223490974
sS'crabapple'
p718
F352.52184368765779
sS'person'
p719
F106.70260066165473
sS'without'
p720
F146.79088140414555
sS'na'
p721
F219.89482619422836
sS'model'
p722
F236.64846752658445
sS'audio'
p723
F236.68411583894436
sS'liefeld'
p724
F199.53256290035219
sS'mon'
p725
F214.30715917001658
sS'summer'
p726
F111.58602689407719
sS'less'
p727
F177.24487515588228
sS'photo'
p728
F127.76732849111318
sS'ne'
p729
F192.06950867752397
sS'shape'
p730
F123.27935804839464
sS'dartvax'
p731
F138.56012471218691
sS'thanks'
p732
F305.49699597813918
sS'questions'
p733
F113.9818453947526
sS'world'
p734
F273.32875387471364
sS'co'
p735
F129.97351208864953
sS'speed'
p736
F132.15531685812013
sS'like'
p737
F346.37259794625157
sS'wed'
p738
F193.27664540218544
sS'cornell'
p739
F207.85604363732048
sS'stratus'
p740
F147.79746635966603
sS'jeff'
p741
F124.26642653171854
sS'smith'
p742
F154.69487531814673
sS'tin'
p743
F103.69097229540105
sS'silver'
p744
F169.61787453015978
sS'battery'
p745
F127.53659565097429
sS'internal'
p746
F154.74834160540621
sS'4'
F318.65611538899134
sS'input'
p747
F111.58602689407719
sS'psu'
p748
F120.68665982973803
sS'ravel'
p749
F144.7648790818325
sS'ic'
p750
F96.539870757787185
sS'gmt'
p751
F136.30360808205097
sS'real'
p752
F101.69017902227947
sS'around'
p753
F173.17894832421533
sS'format'
p754
F100.11542152659412
sS'big'
p755
F138.56012471218691
sS'bid'
p756
F100.11542152659412
sS'digital'
p757
F185.48908259261609
sS'virginia'
p758
F188.44530032402969
sS'dark'
p759
F110.14462003783714
sS'department'
p760
F134.31332273774666
sS'game'
p761
F248.8232887610674
sS'know'
p762
F278.06710126486502
sS'installed'
p763
F104.21304223490974
sS'using'
p764
F129.97351208864953
sS'bit'
p765
F163.67613054417964
sS'2nd'
p766
F138.56012471218691
sS'color'
p767
F177.95973721197092
sS'58'
p768
F158.53219735358434
sS'packaging'
p769
F116.34827191841094
sS'motorola'
p770
F116.34827191841094
sS'59'
p771
F134.31332273774666
sS'intel'
p772
F125.27981992084068
sS'55'
p773
F163.28812863541245
sS'54'
p774
F142.71805059948957
sS'57'
p775
F148.79648231289059
sS'disks'
p776
F236.64846752658445
sS'manual'
p777
F252.03731528146537
sS'50'
p778
F358.20433170393227
sS'53'
p779
F171.40647426061747
sS'52'
p780
F189.43841951755789
sS'michael'
p781
F187.80035353779834
sS'mhz'
p782
F91.241468524016383
sS'either'
p783
F142.71805059948957
sS'night'
p784
F111.58602689407719
sS'output'
p785
F107.68681030940672
sS'works'
p786
F191.06259616186344
sS'soft'
p787
F96.539870757787185
sS'page'
p788
F105.19673691959946
sS'56'
p789
F154.69487531814673
sS'old'
p790
F281.07766387884618
sS'deal'
p791
F170.60976630333838
sS'people'
p792
F162.29679930083591
sS'51'
p793
F196.43057682652602
sS'back'
p794
F226.98820768436477
sS'bach'
p795
F167.81288488852957
sS'zoom'
p796
F96.539870757787185
sS'brian'
p797
F93.909878737423014
sS'sure'
p798
F101.69017902227947
sS'udel'
p799
F402.99051706330988
sS'cleveland'
p800
F154.69487531814673
sS'home'
p801
F211.44640641184193
sS'peter'
p802
F101.69017902227947
sS'batcomputer'
p803
F109.15992696050102
sS'est'
p804
F93.909878737423014
sS'umr'
p805
F99.599745261076279
sS'tools'
p806
F92.221986352848404
sS'delaware'
p807
F127.76732849111318
sS'thank'
p808
F112.57117467801669
sS'per'
p809
F154.86426767178656
sS'gateway'
p810
F98.54078600593769
sS'baud'
p811
F115.98242239553234
sS'umd'
p812
F224.64993875013488
sS'asking'
p813
F351.25476107478204
sS'bogus'
p814
F178.40213553301729
sS'umn'
p815
F156.1782822531938
sS'temple'
p816
F114.41762460182186
sS'cassette'
p817
F158.53219735358434
sS'3b1'
p818
F96.539870757787185
sS'ufl'
p819
F299.33606208922595
sS'ba'
p820
F296.17730986418024
sS'business'
p821
F143.70756083178767
sS'ps'
p822
F106.70260066165473
sS'300'
p823
F193.67989199969719
sS'uchicago'
p824
F102.67332402087423
sS'use'
p825
F287.22955571122435
sS'update'
p826
F96.539870757787185
sS'host'
p827
F352.86478512511297
sS'1993apr21'
p828
F165.99123228884216
sS'corp'
p829
F111.58602689407719
sS'1993apr26'
p830
F116.34827191841094
sS'post'
p831
F123.27935804839464
sS'msstate'
p832
F131.87439542027306
sS'acc'
p833
F113.9818453947526
sS'obo'
p834
F218.11751529434113
sS'working'
p835
F195.85366734088123
sS'anything'
p836
F99.132864571878571
sS'oh'
p837
F124.26642653171854
sS'months'
p838
F140.6499531545156
sS'shipping'
p839
F371.23881150415798
sS'thousands'
p840
F100.79292186911826
sS'compatible'
p841
F149.78661367769953
sS'magazine'
p842
F104.21304223490974
sS'plus'
p843
F234.39467259775984
sS'ide'
p844
F166.98285226950864
sS'os'
p845
F100.11542152659412
sS'book'
p846
F276.90666745426415
sS'software'
p847
F342.32845397286258
sS'warranty'
p848
F135.30187202140871
sS'colorado'
p849
F91.241468524016383
sS'al'
p850
F91.241468524016383
sS'washington'
p851
F201.61856803545228
sS'sol'
p852
F129.97351208864953
sS'usa'
p853
F357.50263417047501
sS'three'
p854
F171.40647426061747
sS'pair'
p855
F111.16057838390371
sS'right'
p856
F136.44808272531995
sS'references'
p857
F275.22187921470356
sS'negotiable'
p858
F93.909878737423014
sS'wam'
p859
F104.21304223490974
sS'processor'
p860
F101.69017902227947
sS'additional'
p861
F97.521797150400815
sS'area'
p862
F130.96151170339101
sS'transfer'
p863
F111.58602689407719
sS'howland'
p864
F358.9240348155169
sS'support'
p865
F101.69017902227947
sS'tigger'
p866
F116.34827191841094
sS'long'
p867
F125.53615716985982
sS'pages'
p868
F104.21304223490974
sS'fully'
p869
F96.539870757787185
sS'hill'
p870
F93.909878737423014
sS'pa'
p871
F246.381523010487
sS'low'
p872
F131.97390881959623
sS'way'
p873
F167.81288488852957
sS'house'
p874
F158.53219735358434
sS'andy'
p875
F136.25613257980461
sS'avengers'
p876
F99.132864571878571
sS'war'
p877
F102.67332402087423
sS'record'
p878
F92.221986352848404
sS'bagged'
p879
F174.935552581536
sS'ghost'
p880
F193.27664540218544
sS'swrinde'
p881
F138.56012471218691
sS'north'
p882
F148.79115913563805
sS'complete'
p883
F167.81288488852957
sS'iastate'
p884
F99.599745261076279
sS'enough'
p885
F120.9962574124628
sS'poster'
p886
F207.06873788931293
sS'brand'
p887
F226.6382720270596
sS'memory'
p888
F184.48176543255656
sS'sdd'
p889
F167.81288488852957
sS'gatech'
p890
F358.97632057923431
sS'hi'
p891
F127.76732849111318
sS'pacific'
p892
F129.97351208864953
sS'indiana'
p893
F176.24780192580093
sS'e'
F360.45923571419638
sS'line'
p894
F178.40213553301729
sS'hd'
p895
F129.76774531409961
sS'posted'
p896
F118.68614518816484
sS'info'
p897
F158.53219735358434
sS'also'
p898
F296.30163595322296
sS'wisc'
p899
F185.68510730616239
sS'made'
p900
F167.81288488852957
sS'stanford'
p901
F313.79900335761346
sS'comics'
p902
F302.8375812924138
sS'j'
F158.77381049836151
sS'signed'
p903
F143.70756083178767
sS'cis'
p904
F373.37738915907835
sS'acsu'
p905
F96.539870757787185
sS'uk'
p906
F112.57117467801669
sS'distribution'
p907
F360.93042857453446
sS'walter'
p908
F139.50032621265709
sS'display'
p909
F121.98298255450275
sS'uc'
p910
F153.28566712034751
sS'firm'
p911
F132.15531685812013
sS'ac'
p912
F158.62302173322084
sS'pin'
p913
F112.57117467801669
sS'computing'
p914
F171.40647426061747
sS'm'
F363.51937546320966
sS'ulowell'
p915
F154.93293707278534
sS'doesn'
p916
F101.69017902227947
sS'general'
p917
F174.35471133843228
sS'mini'
p918
F104.21304223490974
sS'engineering'
p919
F185.15527813585751
sS'file'
p920
F101.69017902227947
sS'orst'
p921
F157.72491541854183
sS'cables'
p922
F99.132864571878571
sS'check'
p923
F126.52355168124713
sS'k'
F134.15569491566882
sS'inc'
p924
F190.06938356179162
sS'nj'
p925
F153.81268402444704
sS'uucp'
p926
F207.58599063258436
sS'nm'
p927
F134.31332273774666
sS'48'
p928
F181.80811665817168
sS'incredible'
p929
F128.75503299472803
sS'46'
p930
F154.69487531814673
sS'47'
p931
F152.7480950023608
sS'44'
p932
F176.67653490212126
sS'45'
p933
F271.33365348146754
sS'42'
p934
F212.44070294849712
sS'43'
p935
F191.67977024299117
sS'40'
p936
F354.82932971559956
sS'41'
p937
F209.06883237958527
sS'power'
p938
F293.54808493375083
sS'ny'
p939
F181.80811665817168
sS'prism'
p940
F142.71805059948957
sS'interested'
p941
F339.32201637978386
sS'5'
F185.61287801992762
sS'details'
p942
F99.132864571878571
sS'fs7'
p943
F336.07958679756064
sS'test'
p944
F132.15531685812013
sS'bitzm'
p945
F144.71835247717297
sS'nice'
p946
F148.79648231289059
sS'picture'
p947
F159.52321515623163
sS'cellar'
p948
F110.84207383301492
sS'star'
p949
F142.71805059948957
sS'users'
p950
F122.72952640619937
sS'utilities'
p951
F109.15992696050102
sS'includes'
p952
F246.56183917055313
sS'lens'
p953
F155.77807822480753
sS'du'
p954
F183.48894254836168
sS'included'
p955
F256.44847854197667
sS'486'
p956
F103.69097229540105
sS'13'
p957
F317.85251537961739
sS'sequent'
p958
F123.91269754256679
sS'ago'
p959
F138.56012471218691
sS'0700'
p960
F96.539870757787185
sS'remote'
p961
F175.17911631803386
sS'amp'
p962
F148.79115913563805
sS'mb'
p963
F169.81307010458505
sS'dave'
p964
F91.241468524016383
sS'original'
p965
F309.62873371581111
sS'2000'
p966
F111.58602689407719
sS'nasa'
p967
F169.01753665770764
sS'u'
F266.05208667886325
sS'begins'
p968
F93.909878737423014
sS'time'
p969
F256.75926674538334
sS'oracle'
p970
F136.29368996156711
sS'buffalo'
p971
F137.34710300874156
sS'cpu'
p972
F145.75460486756381
sS'others'
p973
F101.69017902227947
s.