(dp1
S''
F709.8534935384688
sS'limited'
p2
F148.79648231289059
sS'gt'
p3
F226.6382720270596
sS'consider'
p4
F152.7480950023608
sS'sales'
p5
F121.98298255450275
sS'month'
p6
F118.68614518816484
sS'steve'
p7
F183.1356566087955
sS'91'
p8
F125.27981992084068
sS'legal'
p9
F140.6499531545156
sS'go'
p10
F325.45509669966651
sS'alt'
p11
F247.60455431121477
sS'concepts'
p12
F134.31332273774666
sS'forget'
p13
F146.79088140414555
sS'certainly'
p14
F120.9962574124628
sS'tx'
p15
F197.85000930448095
sS'umd'
p16
F247.52140714220906
sS'peachnet'
p17
F113.9818453947526
sS'send'
p18
F186.80733035759181
sS'0'
F277.47003267961145
sS'finally'
p19
F120.9962574124628
sS'wants'
p20
F132.15531685812013
sS'sorry'
p21
F129.97351208864953
sS'slb'
p22
F198.11524845534922
sS'worth'
p23
F161.41460094183134
sS'ucsd'
p24
F116.34827191841094
sS'division'
p25
F134.31332273774666
sS'liter'
p26
F144.74153751127443
sS'far'
p27
F201.5326697311111
sS'automotive'
p28
F194.86018914176245
sS'1993'
p29
F193.55139889353129
sS'mph'
p30
F177.24487515588228
sS'every'
p31
F269.31879640063693
sS'mps'
p32
F378.38610058908637
sS'uwm'
p33
F325.54184272476192
sS'difference'
p34
F134.31332273774666
sS'condition'
p35
F116.34827191841094
sS'room'
p36
F133.14359774934829
sS'four'
p37
F142.71805059948957
sS'school'
p38
F136.25613257980461
sS'gov'
p39
F370.57125903027327
sS'transmission'
p40
F223.61844680125168
sS'cause'
p41
F146.79088140414555
sS'primate'
p42
F134.31332273774666
sS'list'
p43
F241.37205600818496
sS'cma'
p44
F130.96151170339101
sS'saab'
p45
F133.14359774934829
sS'try'
p46
F199.53256290035219
sS'p'
F244.63046415083761
sS'monsanto'
p47
F136.29368996156711
sS'red'
p48
F118.68614518816484
sS'small'
p49
F231.99730166391578
sS'guy'
p50
F154.74834160540621
sS'disclaimer'
p51
F154.69487531814673
sS'tek'
p52
F142.74451984550959
sS'says'
p53
F217.12296987591182
sS'corvette'
p54
F120.68665982973803
sS'eclipse'
p55
F114.35526307753203
sS'tires'
p56
F258.5855491964931
sS'second'
p57
F165.14411156927162
sS'cost'
p58
F213.44649449739077
sS'radar'
p59
F287.84677601089004
sS'manta'
p60
F125.53615716985982
sS'cactus'
p61
F293.0266833383435
sS'gm'
p62
F187.80035353779834
sS'even'
p63
F319.03918491265756
sS'ssave'
p64
F129.97351208864953
sS'swrinde'
p65
F123.27935804839464
sS'business'
p66
F114.96742164844318
sS'consumers'
p67
F134.31332273774666
sS'sun'
p68
F299.18989163230611
sS'exactly'
p69
F118.68614518816484
sS'nec'
p70
F134.15569491566882
sS'netnews'
p71
F181.16680741370479
sS'current'
p72
F158.53219735358434
sS'lights'
p73
F194.86018914176245
sS'version'
p74
F165.99123228884216
sS'usenet'
p75
F403.13589693501274
sS'goes'
p76
F152.7480950023608
sS'ecn'
p77
F393.88411415668025
sS'reply'
p78
F339.86959428811792
sS'net'
p79
F286.72002781733909
sS'ever'
p80
F252.31136080781084
sS'bird'
p81
F144.7648790818325
sS'told'
p82
F180.11258744500404
sS'body'
p83
F172.39849542409684
sS'ogicse'
p84
F185.15527813585751
sS'full'
p85
F160.42342462426487
sS'never'
p86
F281.76372800942835
sS'drew'
p87
F128.57665728717859
sS'water'
p88
F181.79729196257369
sS'47'
p89
F129.97351208864953
sS'let'
p90
F214.30715917001658
sS'trunk'
p91
F158.53219735358434
sS'100'
p92
F162.42363724998131
sS'quite'
p93
F226.6382720270596
sS'change'
p94
F246.381523010487
sS'wait'
p95
F146.79088140414555
sS'box'
p96
F137.43688838281054
sS'great'
p97
F231.84868165675513
sS'dec'
p98
F243.26975280869851
sS'arc'
p99
F145.39997443773694
sS'sender'
p100
F340.4116007084333
sS'ctr'
p101
F123.27935804839464
sS'33'
p102
F169.61787453015978
sS'32'
p103
F185.15527813585751
sS'31'
p104
F164.15263443443223
sS'30'
p105
F228.63834144691793
sS'37'
p106
F150.78208958043621
sS'36'
p107
F148.79648231289059
sS'experience'
p108
F183.48894254836168
sS'34'
p109
F183.48894254836168
sS'women'
p110
F132.15531685812013
sS'mentor'
p111
F210.89890504801537
sS'usually'
p112
F167.81288488852957
sS'shifting'
p113
F162.29679930083591
sS'bob'
p114
F151.95354667137903
sS'sound'
p115
F125.53615716985982
sS'makes'
p116
F178.40213553301729
sS'nataraja'
p117
F125.1116059115411
sS'psinntp'
p118
F148.78136919210294
sS'engineer'
p119
F118.68614518816484
sS'love'
p120
F173.17894832421533
sS'extra'
p121
F148.79648231289059
sS'triumf'
p122
F165.32405934373097
sS'put'
p123
F275.25579989219659
sS'geico'
p124
F190.06938356179162
sS'motor'
p125
F156.6951127012376
sS'dumbest'
p126
F144.7648790818325
sS'market'
p127
F209.53384191180476
sS'jpl'
p128
F183.303716744844
sS'1993apr22'
p129
F246.56183917055313
sS'1993apr23'
p130
F219.89482619422836
sS'1993apr20'
p131
F245.31191954907391
sS'1993apr21'
p132
F269.31879640063693
sS'usc'
p133
F272.37640232452185
sS'would'
p134
F307.27361957061731
sS'illegal'
p135
F114.96742164844318
sS'two'
p136
F301.7677537313096
sS'next'
p137
F208.06283233166118
sS'live'
p138
F148.79648231289059
sS'unix'
p139
F137.34987812794665
sS'call'
p140
F180.40228859970901
sS'wondering'
p141
F156.62279306248197
sS'6'
F348.41500226116699
sS'indiana'
p142
F229.84130663205127
sS'care'
p143
F140.6499531545156
sS'type'
p144
F171.40647426061747
sS'tell'
p145
F176.67653490212126
sS'today'
p146
F156.62279306248197
sS'turbo'
p147
F226.98820768436477
sS'door'
p148
F220.13982074174973
sS'posting'
p149
F341.3878390590574
sS'hou281'
p150
F119.19330762826768
sS'club'
p151
F333.63235764934268
sS'company'
p152
F190.06938356179162
sS'owners'
p153
F185.48908259261609
sS'gtefsd'
p154
F332.62221526127854
sS'phone'
p155
F136.44808272531995
sS'stick'
p156
F156.82861900531853
sS'known'
p157
F134.31332273774666
sS'90'
p158
F174.935552581536
sS'93'
p159
F369.98480128472789
sS'92'
p160
F148.79648231289059
sS'must'
p161
F212.88246401399977
sS'passenger'
p162
F120.9962574124628
sS'states'
p163
F114.6343464584007
sS'utexas'
p164
F323.23814831260688
sS'ma'
p165
F123.27935804839464
sS'ibm'
p166
F315.38320269155162
sS'f'
F136.44808272531995
sS'past'
p167
F117.33425261224532
sS'work'
p168
F286.23280951498174
sS'mi'
p169
F122.80491783056365
sS'lanmola'
p170
F123.27935804839464
sS'mu'
p171
F122.996744599463
sS'hope'
p172
F125.53615716985982
sS'vehicle'
p173
F201.06448994477586
sS'v'
F239.46884967138078
sS'reston'
p174
F337.99586000775264
sS'plug'
p175
F127.76732849111318
sS'something'
p176
F268.33238707285682
sS'control'
p177
F127.76732849111318
sS'claim'
p178
F151.7724119591484
sS'give'
p179
F186.14820258529446
sS'cwru'
p180
F353.79927996698865
sS'sps'
p181
F216.14432669063405
sS'tax'
p182
F128.57665728717859
sS'high'
p183
F265.14859161992439
sS'heard'
p184
F263.18848687992556
sS'way'
p185
F316.19703352868186
sS'numbers'
p186
F150.78208958043621
sS'want'
p187
F314.2069034366113
sS'production'
p188
F118.68614518816484
sS'times'
p189
F181.10519819260847
sS'information'
p190
F212.88246401399977
sS'cso'
p191
F466.23584959385033
sS'end'
p192
F196.43057682652602
sS'eng'
p193
F353.60167614979559
sS'rather'
p194
F186.80733035759181
sS'csd'
p195
F169.81307010458505
sS'discussion'
p196
F123.27935804839464
sS'means'
p197
F134.31332273774666
sS'aas7'
p198
F190.06938356179162
sS'american'
p199
F147.780814062704
sS'1'
F411.02673298982421
sS'brian'
p200
F165.56464738243974
sS'hot'
p201
F127.76732849111318
sS'sig'
p202
F116.34827191841094
sS'requests'
p203
F134.31332273774666
sS'instead'
p204
F164.15263443443223
sS'administrator'
p205
F146.79088140414555
sS'de'
p206
F193.87258211838102
sS'may'
p207
F353.39637015678716
sS'advice'
p208
F128.75503299472803
sS'detectors'
p209
F144.7648790818325
sS'fluid'
p210
F134.15569491566882
sS'wrong'
p211
F201.00771121827285
sS'designed'
p212
F174.935552581536
sS'coming'
p213
F142.71805059948957
sS'account'
p214
F127.76732849111318
sS'law'
p215
F162.60813582203903
sS'data'
p216
F120.9962574124628
sS'man'
p217
F144.71835247717297
sS'compartment'
p218
F120.9962574124628
sS'forsale'
p219
F130.53955070219669
sS'boeing'
p220
F220.17270906289528
sS'remember'
p221
F178.40213553301729
sS'maybe'
p222
F201.5326697311111
sS'st'
p223
F117.33425261224532
sS'q'
F148.79648231289059
sS'ones'
p224
F130.96151170339101
sS'truck'
p225
F171.40647426061747
sS'cdac'
p226
F218.70997560534926
sS'things'
p227
F234.39467259775984
sS'sc'
p228
F195.85366734088123
sS'sg'
p229
F134.07693388948579
sS'order'
p230
F125.53615716985982
sS'se'
p231
F262.85969050552609
sS'houston'
p232
F144.7648790818325
sS'help'
p233
F225.31041663022179
sS'oriolefan'
p234
F118.68614518816484
sS'years'
p235
F290.83550528181087
sS'unisql'
p236
F237.98057432467706
sS'130'
p237
F147.780814062704
sS'scott'
p238
F132.96945362104108
sS'looks'
p239
F181.80811665817168
sS'newsgate'
p240
F181.80811665817168
sS'hell'
p241
F162.29679930083591
sS'still'
p242
F313.17161145403298
sS'24'
p243
F248.88743592538819
sS'25'
p244
F256.44847854197667
sS'26'
p245
F276.25938841920237
sS'27'
p246
F231.26354288475471
sS'group'
p247
F205.08495460086647
sS'21'
p248
F351.69372830111229
sS'22'
p249
F327.9916780274425
sS'23'
p250
F347.67299423237716
sS'll'
p251
F312.90275527439519
sS'jim'
p252
F194.86018914176245
sS'28'
p253
F196.43057682652602
sS'29'
p254
F165.99123228884216
sS'actually'
p255
F223.61844680125168
sS'better'
p256
F318.86039170975698
sS'window'
p257
F134.31332273774666
sS'thinking'
p258
F138.56012471218691
sS'systems'
p259
F208.5396785319335
sS'suspension'
p260
F165.99123228884216
sS'weeks'
p261
F117.33425261224532
sS'might'
p262
F215.72061952187585
sS'texas'
p263
F205.58589385152234
sS'happened'
p264
F129.97351208864953
sS'originator'
p265
F125.53615716985982
sS'wouldn'
p266
F183.48894254836168
sS'non'
p267
F145.75460486756381
sS'someone'
p268
F272.36276607465209
sS'auto'
p269
F295.58682289782428
sS'dan'
p270
F124.03906704723076
sS'megatest'
p271
F121.73021115717512
sS'noc'
p272
F363.03770761313467
sS'cutting'
p273
F125.14427690824266
sS'das'
p274
F364.52052628554384
sS'front'
p275
F284.25173250102375
sS'jimf'
p276
F148.79648231289059
sS'valentine'
p277
F121.98298255450275
sS'day'
p278
F219.50893657784491
sS'wagon'
p279
F171.88224066885522
sS'gets'
p280
F163.28812863541245
sS'name'
p281
F192.67307374756959
sS'purdue'
p282
F438.98839759153321
sS'always'
p283
F209.53384191180476
sS'university'
p284
F357.64583144952212
sS'didn'
p285
F226.6382720270596
sS'l'
F159.52321515623163
sS'n'
F118.68614518816484
sS'rocks'
p286
F140.6499531545156
sS'good'
p287
F374.68003987971173
sS'1993apr15'
p288
F340.94791649504629
sS'qazi'
p289
F151.03464783785157
sS'found'
p290
F171.40647426061747
sS'went'
p291
F201.06448994477586
sS'side'
p292
F215.08909872773802
sS'mean'
p293
F160.42342462426487
sS'differential'
p294
F117.99317537062879
sS'another'
p295
F268.29765016309011
sS'ee'
p296
F121.98298255450275
sS'companies'
p297
F142.71805059948957
sS'best'
p298
F270.33731202894563
sS'hard'
p299
F214.30715917001658
sS'idea'
p300
F154.69487531814673
sS'used'
p301
F330.54746691389141
sS'police'
p302
F165.32405934373097
sS'society'
p303
F140.6499531545156
sS'89'
p304
F215.72061952187585
sS'expect'
p305
F151.7724119591484
sS'year'
p306
F327.13662615409555
sS'navy'
p307
F230.10199415666756
sS'magazine'
p308
F121.73021115717512
sS'80'
p309
F188.44530032402969
sS'summary'
p310
F120.9962574124628
sS'86'
p311
F127.76732849111318
sS'insurance'
p312
F294.2161722819049
sS'really'
p313
F350.7324733633323
sS'canada'
p314
F153.73860114083692
sS'network'
p315
F230.56102903548447
sS'driving'
p316
F319.22084338506789
sS'kids'
p317
F148.79648231289059
sS'profit'
p318
F129.97351208864953
sS'rtsg'
p319
F136.44808272531995
sS'robert'
p320
F164.15263443443223
sS'valve'
p321
F157.6136465505646
sS'diesel'
p322
F154.74834160540621
sS'research'
p323
F182.80083501881006
sS'looking'
p324
F275.22187921470356
sS'stuff'
p325
F181.10519819260847
sS'safety'
p326
F164.15263443443223
sS'7'
F566.65966546214838
sS'internet'
p327
F152.7480950023608
sS'got'
p328
F289.83228639028562
sS'electronics'
p329
F158.53219735358434
sS'centerline'
p330
F294.00542021797918
sS'sensor'
p331
F147.88809267456301
sS'highway'
p332
F135.30187202140871
sS'ece'
p333
F323.875217589474
sS'cars'
p334
F329.03552256286594
sS'little'
p335
F273.32875387471364
sS'free'
p336
F173.17894832421533
sS'standard'
p337
F154.69487531814673
sS'quick'
p338
F139.50032621265709
sS'reason'
p339
F183.48894254836168
sS'california'
p340
F167.99142383770734
sS'hasler'
p341
F115.98242239553234
sS'x'
F247.55747868699115
sS'ask'
p342
F183.1356566087955
sS'org'
p343
F344.67448404647723
sS'wanted'
p344
F183.48894254836168
sS'steering'
p345
F144.7648790818325
sS'balltown'
p346
F145.75460486756381
sS'uiuc'
p347
F532.31863831604164
sS'g'
F178.40213553301729
sS'could'
p348
F353.03076417778993
sS'emory'
p349
F135.30187202140871
sS'days'
p350
F165.32405934373097
sS'david'
p351
F206.25868880262627
sS'chevy'
p352
F161.41460094183134
sS'thing'
p353
F274.28610707335088
sS'att'
p354
F346.03586272161857
sS'along'
p355
F118.68614518816484
sS'place'
p356
F179.39463543907698
sS'isn'
p357
F180.11258744500404
sS'w'
F226.6382720270596
sS'cos'
p358
F127.45654016384387
sS'isc'
p359
F203.77568412550207
sS'integra'
p360
F165.99123228884216
sS'austin'
p361
F211.11771444201463
sS'think'
p362
F368.84831737776085
sS'speeds'
p363
F125.53615716985982
sS'first'
p364
F293.18658184764837
sS'feed'
p365
F120.9962574124628
sS'200'
p366
F116.34827191841094
sS'already'
p367
F150.78208958043621
sS'feel'
p368
F209.99885578816958
sS'misc'
p369
F238.60089809242089
sS'number'
p370
F187.15541420694143
sS'one'
p371
F340.00542684696779
sS'clear'
p372
F120.68665982973803
sS'done'
p373
F160.42342462426487
sS'bellcore'
p374
F160.70020089792183
sS'chevron'
p375
F151.65451885154397
sS'pedal'
p376
F132.15531685812013
sS'owner'
p377
F255.21313177302866
sS'sounds'
p378
F176.67653490212126
sS'drove'
p379
F129.97351208864953
sS'open'
p380
F154.69487531814673
sS'george'
p381
F205.76594615134138
sS'opel'
p382
F156.62279306248197
sS'size'
p383
F127.76732849111318
sS'guess'
p384
F173.17894832421533
sS'service'
p385
F244.81864570437091
sS'stuck'
p386
F119.67250825893697
sS'automobile'
p387
F134.31332273774666
sS'top'
p388
F245.6636472418829
sS'system'
p389
F303.52221741579399
sS'least'
p390
F194.86018914176245
sS'anyone'
p391
F342.07872276509966
sS'paint'
p392
F131.97390881959623
sS'2'
F409.91404352603075
sS'kocrsv01'
p393
F175.92782051983778
sS'john'
p394
F241.80475854367833
sS'friend'
p395
F169.61787453015978
sS'selling'
p396
F156.62279306248197
sS'lehigh'
p397
F304.30664066849891
sS'gear'
p398
F199.53256290035219
sS'behind'
p399
F136.44808272531995
sS'ncr'
p400
F127.35471691874919
sS'tom'
p401
F169.81307010458505
sS'took'
p402
F144.71835247717297
sS'csd4'
p403
F144.7648790818325
sS'part'
p404
F160.70020089792183
sS'western'
p405
F116.34827191841094
sS'shifter'
p406
F142.65026830374359
sS'believe'
p407
F222.62367331385857
sS'haven'
p408
F219.89482619422836
sS'std'
p409
F182.72659190622898
sS'1993apr16'
p410
F195.85366734088123
sS'13'
p411
F283.57131632508191
sS'b'
F177.66892059062249
sS'15'
p412
F360.08831707201421
sS'14'
p413
F300.67992638298421
sS'17'
p414
F318.5628658042346
sS'16'
p415
F381.01599611527479
sS'19'
p416
F316.21277582751759
sS'18'
p417
F326.29546664251018
sS'1993apr19'
p418
F138.56012471218691
sS'tommy'
p419
F160.47431332771728
sS'matter'
p420
F120.9962574124628
sS'r'
F303.53919758174101
sS'magnesium'
p421
F332.62221526127854
sS'light'
p422
F195.85366734088123
sS'design'
p423
F164.15263443443223
sS'country'
p424
F134.31332273774666
sS'44'
p425
F129.97351208864953
sS'abs'
p426
F152.7480950023608
sS'close'
p427
F125.53615716985982
sS'wupost'
p428
F178.40213553301729
sS'craig'
p429
F196.43057682652602
sS'mind'
p430
F174.935552581536
sS'mine'
p431
F169.81307010458505
sS'telxon'
p432
F231.96484479106468
sS'talking'
p433
F116.34827191841094
sS'say'
p434
F281.23122632314039
sS'ans'
p435
F343.33733551625522
sS'need'
p436
F274.28610707335088
sS'seen'
p437
F202.05829154466045
sS'seem'
p438
F152.7480950023608
sS'turn'
p439
F197.98797926817903
sS'saw'
p440
F169.61787453015978
sS'sat'
p441
F132.15531685812013
sS'sell'
p442
F154.69487531814673
sS'xref'
p443
F306.22576621916602
sS'rochester'
p444
F396.67357030089863
sS'mil'
p445
F255.94676596366048
sS'magnus'
p446
F353.82276892690049
sS'self'
p447
F134.31332273774666
sS'offer'
p448
F121.98298255450275
sS'able'
p449
F152.7480950023608
sS'mid'
p450
F129.97351208864953
sS'mr2'
p451
F186.30159989378205
sS'note'
p452
F150.78208958043621
sS'also'
p453
F366.75614232309374
sS'sumax'
p454
F142.6538547314446
sS'take'
p455
F283.57131632508191
sS'performance'
p456
F228.95090745590716
sS'detector'
p457
F184.48176543255656
sS'mit'
p458
F255.38351951157287
sS'blue'
p459
F138.56012471218691
sS'mileage'
p460
F201.06448994477586
sS'unless'
p461
F146.79088140414555
sS'sura'
p462
F302.47607074675403
sS'price'
p463
F330.51677641015061
sS'39'
p464
F146.79088140414555
sS'01'
p465
F190.44542893973917
sS'70'
p466
F134.31332273774666
sS'nothing'
p467
F190.06938356179162
sS'class'
p468
F121.98298255450275
sS'damage'
p469
F136.44808272531995
sS'51'
p470
F120.9962574124628
sS'singer'
p471
F122.13481041996228
sS'stupid'
p472
F127.76732849111318
sS'dealers'
p473
F129.97351208864953
sS'windows'
p474
F121.98298255450275
sS'alarm'
p475
F165.14411156927162
sS'later'
p476
F176.67653490212126
sS'request'
p477
F169.61787453015978
sS'drive'
p478
F337.05780794338835
sS'spend'
p479
F122.996744599463
sS'looked'
p480
F138.56012471218691
sS'tech'
p481
F345.57558496258827
sS'wind'
p482
F123.27935804839464
sS'built'
p483
F129.97351208864953
sS'consumer'
p484
F124.26642653171854
sS'08'
p485
F145.75460486756381
sS'came'
p486
F162.29679930083591
sS'parr'
p487
F114.9361726946552
sS'thomas'
p488
F134.09628869970894
sS'show'
p489
F132.15531685812013
sS'v12'
p490
F150.78208958043621
sS'bitnet'
p491
F130.74388148221621
sS'probe'
p492
F209.99885578816958
sS'anyway'
p493
F191.67977024299117
sS'leland'
p494
F140.56045402787441
sS'odometer'
p495
F135.30187202140871
sS'radio'
p496
F139.48376907074584
sS'keywords'
p497
F227.95592420641054
sS'fine'
p498
F165.99123228884216
sS'find'
p499
F257.75522360399555
sS'ksu'
p500
F210.39347383919892
sS'access'
p501
F136.44808272531995
sS'based'
p502
F167.81288488852957
sS'urbana'
p503
F129.97351208864953
sS'tire'
p504
F172.39849542409684
sS'writes'
p505
F171.26074043430549
sS'3'
F367.14900301931237
sS'king'
p506
F122.72952640619937
sS'going'
p507
F274.28610707335088
sS'black'
p508
F134.31332273774666
sS'pretty'
p509
F207.06873788931293
sS'fuel'
p510
F203.58473315696867
sS'8'
F269.29153836398569
sS'darwin'
p511
F226.6382720270596
sS'local'
p512
F178.40213553301729
sS'interested'
p513
F208.5396785319335
sS'boyle'
p514
F284.75591691683223
sS'dodge'
p515
F158.62302173322084
sS'11'
p516
F230.25850929940458
sS'hit'
p517
F144.7648790818325
sS'1993apr6'
p518
F215.49364777207765
sS'1993apr5'
p519
F183.48894254836168
sS'get'
p520
F369.70906334882824
sS'yfn'
p521
F173.17894832421533
sS'honda'
p522
F263.02168788551461
sS'stop'
p523
F157.6136465505646
sS'kind'
p524
F199.53256290035219
sS'watson'
p525
F156.93532586130817
sS'1993apr14'
p526
F214.9921747320036
sS'new'
p527
F375.78202227474895
sS'delcoelect'
p528
F157.6136465505646
sS'dt'
p529
F194.62051149056433
sS'saturn'
p530
F249.26989380808675
sS'gibbonsa'
p531
F116.34827191841094
sS'trucks'
p532
F123.27935804839464
sS'course'
p533
F209.99885578816958
sS'h'
F213.20270470874701
sS'decwrl'
p534
F122.80491783056365
sS'email'
p535
F209.53384191180476
sS'bad'
p536
F242.38614796596755
sS'miles'
p537
F306.5668582116383
sS'gears'
p538
F114.96742164844318
sS'ohio'
p539
F427.76743567980714
sS'automatic'
p540
F212.88246401399977
sS'nist'
p541
F128.57665728717859
sS'sho'
p542
F227.31048748888716
sS'available'
p543
F167.81288488852957
sS'btw'
p544
F120.9962574124628
sS'set'
p545
F158.53219735358434
sS'problem'
p546
F323.84258533022194
sS'national'
p547
F134.31332273774666
sS'seats'
p548
F143.70756083178767
sS'seat'
p549
F153.73860114083692
sS'mentioned'
p550
F140.6499531545156
sS'see'
p551
F303.52221741579399
sS'computer'
p552
F260.00959225796674
sS'zaphod'
p553
F350.77001740885004
sS'recently'
p554
F156.62279306248197
sS'sport'
p555
F165.99123228884216
sS'constellation'
p556
F237.40937643257809
sS'lexus'
p557
F122.996744599463
sS'sei'
p558
F363.47953633708835
sS'seems'
p559
F205.58589385152234
sS'02'
p560
F186.51132351179081
sS'03'
p561
F174.43146443912227
sS'00'
p562
F261.76092399049446
sS'said'
p563
F251.17855073273171
sS'06'
p564
F153.73860114083692
sS'07'
p565
F150.79674904357552
sS'04'
p566
F173.40664771814721
sS'05'
p567
F193.67989199969719
sS'lots'
p568
F118.68614518816484
sS'away'
p569
F207.06873788931293
sS'09'
p570
F152.7480950023608
sS'please'
p571
F324.69962974392416
sS'sfu'
p572
F134.15569491566882
sS'state'
p573
F318.81727257730648
sS'won'
p574
F182.11273597603267
sS'viper'
p575
F116.34827191841094
sS'probably'
p576
F231.84868165675513
sS'teens'
p577
F120.9962574124628
sS'reading'
p578
F117.02865879020196
sS'nntp'
p579
F347.48513068409761
sS'cka52397'
p580
F171.40647426061747
sS'bought'
p581
F236.14138050051039
sS'europe'
p582
F168.22448143748062
sS'accord'
p583
F146.79088140414555
sS'europa'
p584
F335.59899055628711
sS'sold'
p585
F164.15263443443223
sS'however'
p586
F178.40213553301729
sS'tobias'
p587
F130.53955070219669
sS'mazda'
p588
F164.15263443443223
sS'job'
p589
F160.42342462426487
sS'harvard'
p590
F367.86475129733782
sS'wrote'
p591
F127.76732849111318
sS'joe'
p592
F122.80491783056365
sS'agate'
p593
F209.99885578816958
sS'article'
p594
F182.15405247627726
sS'convertible'
p595
F198.98162327881855
sS'come'
p596
F223.97225284596044
sS'tue'
p597
F258.93417150383243
sS'c'
F276.21834979315963
sS'accident'
p598
F166.98285226950864
sS'last'
p599
F269.33855308822149
sS'reverse'
p600
F121.98298255450275
sS'many'
p601
F303.53919758174101
sS'cup'
p602
F190.7588181287517
sS'called'
p603
F198.98162327881855
sS'etc'
p604
F282.61611669762414
sS'cover'
p605
F119.67250825893697
sS'bnr'
p606
F231.43877008751039
sS'spare'
p607
F118.68614518816484
sS'wheels'
p608
F171.61805372236222
sS'col'
p609
F196.35142531696025
sS'comes'
p610
F138.56012471218691
sS'uci'
p611
F134.09628869970894
sS'ch'
p612
F118.34881640280915
sS'ucs'
p613
F274.63441205560076
sS'point'
p614
F247.7289851057138
sS'cc'
p615
F397.64252691056532
sS'cb'
p616
F227.94351055923275
sS'ca'
p617
F432.86569491588813
sS'berkeley'
p618
F166.27214965462429
sS'uunet'
p619
F352.24688045573504
sS'60'
p620
F169.61787453015978
sS'na'
p621
F197.98797926817903
sS'65'
p622
F117.33425261224532
sS'ames'
p623
F129.97351208864953
sS'expensive'
p624
F144.7648790818325
sS'considering'
p625
F134.31332273774666
sS'uxa'
p626
F201.06448994477586
sS'58'
p627
F125.53615716985982
sS'engines'
p628
F227.63320443053337
sS'fri'
p629
F292.21614623962785
sS'porsche'
p630
F147.780814062704
sS'three'
p631
F173.17894832421533
sS'mark'
p632
F233.82473678944348
sS'much'
p633
F368.07599134117487
sS'armory'
p634
F187.35623323605424
sS'po'
p635
F201.06448994477586
sS'500'
p636
F117.33425261224532
sS'engine'
p637
F382.95146126627367
sS'life'
p638
F178.40213553301729
sS'torque'
p639
F178.67669271546023
sS'gas'
p640
F221.26456841387008
sS'andrew'
p641
F393.50116330569648
sS'netcom'
p642
F184.5941733773825
sS'else'
p643
F214.30715917001658
sS'38'
p644
F162.29679930083591
sS'understand'
p645
F127.76732849111318
sS'bmw'
p646
F246.02122103958226
sS'mail'
p647
F279.06364503448367
sS'prices'
p648
F130.96151170339101
sS'ins'
p649
F278.12222276727886
sS'case'
p650
F218.51433229625704
sS'look'
p651
F273.32875387471364
sS'jkjec'
p652
F127.76732849111318
sS'value'
p653
F185.48908259261609
sS'air'
p654
F231.26354288475471
sS'institute'
p655
F164.15263443443223
sS'near'
p656
F366.15419385392244
sS'reliability'
p657
F118.68614518816484
sS'replaced'
p658
F127.76732849111318
sS'shift'
p659
F212.16120612189349
sS'fun'
p660
F151.7724119591484
sS'bb3'
p661
F253.43576800624751
sS'ysu'
p662
F261.26713644117689
sS'saimiri'
p663
F134.31332273774666
sS'cylinder'
p664
F144.7648790818325
sS'ctron'
p665
F208.42608446981947
sS've'
p666
F350.26502424482089
sS'almost'
p667
F171.40647426061747
sS'freenet'
p668
F146.93242776478016
sS'rit'
p669
F193.12104041254821
sS'alaska'
p670
F123.91269754256679
sS'blah'
p671
F251.85317901264585
sS'unit'
p672
F130.80676477023005
sS'callison'
p673
F371.87616325606126
sS'brake'
p674
F245.00751536405903
sS'35'
p675
F144.7648790818325
sS'vw'
p676
F264.13672864301384
sS'vx'
p677
F116.34827191841094
sS'engr'
p678
F295.2806989185367
sS'technology'
p679
F190.06938356179162
sS'audi'
p680
F131.97390881959623
sS'different'
p681
F220.51441106680642
sS'since'
p682
F297.89314702967266
sS'james'
p683
F258.93417150383243
sS'pay'
p684
F213.44649449739077
sS'make'
p685
F331.48254175146144
sS'welty'
p686
F161.7749106805733
sS'dealer'
p687
F348.45923645267254
sS'matthew'
p688
F134.31332273774666
sS'parts'
p689
F222.9113068392717
sS'grand'
p690
F118.34881640280915
sS'9'
F197.33168699745616
sS'several'
p691
F189.21438617138199
sS'higher'
p692
F138.56012471218691
sS'wheel'
p693
F234.60156783146806
sS'exhaust'
p694
F124.03906704723076
sS'oil'
p695
F360.68551521675784
sS'columbia'
p696
F181.42556491108272
sS'ux1'
p697
F142.71805059948957
sS'keys'
p698
F179.18526529123093
sS'driver'
p699
F251.62934010362821
sS'hand'
p700
F226.02891719886551
sS'driven'
p701
F170.60976630333838
sS'running'
p702
F127.76732849111318
sS'000'
p703
F284.34979159960193
sS'v4'
p704
F175.17911631803386
sS'user'
p705
F123.27935804839464
sS'v6'
p706
F240.14183178109747
sS'v8'
p707
F224.96708040137287
sS'changing'
p708
F156.62279306248197
sS'caen'
p709
F190.06938356179162
sS'keep'
p710
F223.61844680125168
sS'yeah'
p711
F140.6499531545156
sS'lower'
p712
F129.97351208864953
sS'drain'
p713
F137.43688838281054
sS'center'
p714
F191.67977024299117
sS'older'
p715
F120.9962574124628
sS'thu'
p716
F245.38592185640351
sS'well'
p717
F350.92562310791254
sS'anybody'
p718
F138.56012471218691
sS'know'
p719
F371.5478056324061
sS'crabapple'
p720
F347.45734779815649
sS'thought'
p721
F190.06938356179162
sS'person'
p722
F143.70756083178767
sS'without'
p723
F266.29761190037055
sS'seattleu'
p724
F150.12661097705796
sS'elroy'
p725
F125.53615716985982
sS'model'
p726
F241.80475854367833
sS'spencer'
p727
F160.42342462426487
sS'left'
p728
F249.72903551757878
sS'opinions'
p729
F230.56102903548447
sS'less'
p730
F222.25928669094051
sS'money'
p731
F220.88948808208593
sS'diesels'
p732
F134.31332273774666
sS'rush'
p733
F120.9962574124628
sS'aftermarket'
p734
F116.34827191841094
sS'toronto'
p735
F130.80676477023005
sS'kill'
p736
F116.34827191841094
sS'thanks'
p737
F290.53847012838105
sS'questions'
p738
F175.17911631803386
sS'world'
p739
F301.23266312841884
sS'co'
p740
F144.7648790818325
sS'yes'
p741
F174.935552581536
sS'illinois'
p742
F205.58589385152234
sS'speed'
p743
F338.12068533072397
sS'yet'
p744
F144.7648790818325
sS'previous'
p745
F194.27003740843699
sS'wed'
p746
F173.17894832421533
sS'cornell'
p747
F170.83873610614307
sS'stratus'
p748
F150.42777948576455
sS'jeff'
p749
F134.31332273774666
sS'smith'
p750
F166.27214965462429
sS'except'
p751
F169.61787453015978
sS'silver'
p752
F127.39147426472348
sS'add'
p753
F170.60976630333838
sS'book'
p754
F152.7480950023608
sS'parents'
p755
F127.76732849111318
sS'4'
F379.85881529475
sS'easy'
p756
F120.9962574124628
sS'real'
p757
F252.31136080781084
sS'around'
p758
F308.04564037951968
sS'decided'
p759
F120.9962574124628
sS'read'
p760
F282.76036477226728
sS'big'
p761
F248.72466232117202
sS'couple'
p762
F140.6499531545156
sS'virginia'
p763
F318.61855353265781
sS'1993apr17'
p764
F124.26642653171854
sS'mot'
p765
F312.00887344616444
sS'early'
p766
F165.99123228884216
sS'traffic'
p767
F156.62279306248197
sS'mon'
p768
F208.5396785319335
sS'installed'
p769
F123.27935804839464
sS'using'
p770
F196.43057682652602
sS'bit'
p771
F180.11258744500404
sS'wasn'
p772
F118.68614518816484
sS'mis'
p773
F125.1116059115411
sS'rear'
p774
F259.46372777210576
sS'like'
p775
F339.40145705187075
sS'59'
p776
F130.96151170339101
sS'd'
F371.79385873291284
sS'55'
p777
F183.48894254836168
sS'54'
p778
F164.15263443443223
sS'57'
p779
F150.78208958043621
sS'56'
p780
F142.71805059948957
sS'manual'
p781
F261.94636545121494
sS'50'
p782
F240.51408460014488
sS'53'
p783
F130.96151170339101
sS'52'
p784
F145.75460486756381
sS'michael'
p785
F126.21616554807932
sS'either'
p786
F209.99885578816958
sS'clutch'
p787
F283.59069516519111
sS'newsserver'
p788
F132.96945362104108
sS'nice'
p789
F221.89490327977799
sS'nissan'
p790
F212.88246401399977
sS'antique'
p791
F309.14847098769349
sS'right'
p792
F333.63235764934268
sS'old'
p793
F260.00959225796674
sS'ole'
p794
F220.17270906289528
sS'deal'
p795
F197.98797926817903
sS'people'
p796
F348.34018964228898
sS'toyota'
p797
F257.85075116829961
sS'bcstec'
p798
F115.7164106115594
sS'back'
p799
F328.29429770178092
sS'pacific'
p800
F127.76732849111318
sS'sure'
p801
F284.46508847851493
sS'udel'
p802
F312.4008828928994
sS'convex'
p803
F269.40245588030336
sS'rich'
p804
F119.67250825893697
sS'home'
p805
F146.79088140414555
sS'mustang'
p806
F277.12570305507751
sS'uoknor'
p807
F362.74503310636993
sS'avoid'
p808
F118.68614518816484
sS'though'
p809
F230.56102903548447
sS'per'
p810
F149.82277618633185
sS'everything'
p811
F148.79648231289059
sS'bogus'
p812
F173.17894832421533
sS'ucalgary'
p813
F146.93242776478016
sS'noose'
p814
F160.42342462426487
sS'murdoch'
p815
F176.67653490212126
sS'howell'
p816
F171.18462567773352
sS'loral'
p817
F147.79746635966603
sS'noise'
p818
F194.27003740843699
sS'run'
p819
F150.78208958043621
sS'power'
p820
F292.4705959056177
sS'300'
p821
F123.27935804839464
sS'eliot'
p822
F305.80909229878773
sS'use'
p823
F310.78325008375106
sS'host'
p824
F354.34737493078137
sS'corp'
p825
F154.69487531814673
sS'although'
p826
F156.62279306248197
sS'1993apr26'
p827
F151.82771340371229
sS'post'
p828
F162.29679930083591
sS'acc'
p829
F156.62279306248197
sS'works'
p830
F144.7648790818325
sS'ok'
p831
F181.80811665817168
sS'usa'
p832
F357.25610726885685
sS'anything'
p833
F245.38592185640351
sS'oh'
p834
F205.58589385152234
sS'jeep'
p835
F128.75503299472803
sS'months'
p836
F181.10519819260847
sS'o'
F221.65113808647604
sS'costs'
p837
F120.9962574124628
sS'acs'
p838
F381.92692209848917
sS'range'
p839
F125.27981992084068
sS'plus'
p840
F116.34827191841094
sS'oz'
p841
F122.72952640619937
sS'road'
p842
F279.25072472931549
sS'software'
p843
F185.15527813585751
sS'warranty'
p844
F125.53615716985982
sS'slcs'
p845
F139.48376907074584
sS'colorado'
p846
F209.63547747758523
sS'civic'
p847
F151.7724119591484
sS'within'
p848
F123.27935804839464
sS'washington'
p849
F370.85940285410925
sS'sol'
p850
F146.79088140414555
sS'getting'
p851
F225.31041663022179
sS'sedan'
p852
F119.67250825893697
sS'subaru'
p853
F125.53615716985982
sS'references'
p854
F227.36621043389545
sS'buick'
p855
F120.9962574124628
sS'roads'
p856
F150.78208958043621
sS'cisco'
p857
F146.80758531800217
sS'sports'
p858
F163.4511890154003
sS'wrat'
p859
F123.27935804839464
sS'often'
p860
F162.29679930083591
sS'fast'
p861
F239.13712956366473
sS'story'
p862
F123.27935804839464
sS'brakes'
p863
F195.27676393334755
sS'possible'
p864
F129.97351208864953
sS'area'
p865
F221.26456841387008
sS'aren'
p866
F148.79648231289059
sS'howland'
p867
F337.99586000775264
sS'question'
p868
F262.07316045049032
sS'long'
p869
F253.17859861375695
sS'start'
p870
F146.79088140414555
sS'newsreader'
p871
F125.53615716985982
sS'pa'
p872
F133.14359774934829
sS'low'
p873
F232.84381150118236
sS'lot'
p874
F264.18463082603995
sS'sale'
p875
F134.31332273774666
sS'tamu'
p876
F130.74388148221621
sS'head'
p877
F154.69487531814673
sS'buy'
p878
F308.59589482714591
sS'north'
p879
F126.32098093998903
sS'enough'
p880
F257.6596974730183
sS'happen'
p881
F128.75503299472803
sS'hp'
p882
F484.86975434221927
sS'frost'
p883
F152.88038386360392
sS'ford'
p884
F358.70947125645495
sS'sdd'
p885
F201.06448994477586
sS'gatech'
p886
F332.75185203803693
sS'hi'
p887
F142.71805059948957
sS'hear'
p888
F190.26703758689982
sS'ns1'
p889
F255.50665803427214
sS'line'
p890
F164.15263443443223
sS'trying'
p891
F149.78661367769953
sS'true'
p892
F186.80733035759181
sS'hpindda'
p893
F116.83516181685688
sS'buying'
p894
F214.30715917001658
sS'especially'
p895
F125.53615716985982
sS'info'
p896
F191.67977024299117
sS'wisc'
p897
F137.43688838281054
sS'made'
p898
F247.55747868699115
sS'erich'
p899
F159.84455398619005
sS'stanford'
p900
F267.14840797663027
sS'whether'
p901
F161.56048509865084
sS'inside'
p902
F120.9962574124628
sS'j'
F240.59296553767962
sS'us'
p903
F376.50221030118144
sS'volvo'
p904
F118.34881640280915
sS'cis'
p905
F350.92562310791254
sS'camaro'
p906
F164.15263443443223
sS'uk'
p907
F231.71977811423113
sS'distribution'
p908
F365.36577987134251
sS'similar'
p909
F148.79648231289059
sS'agree'
p910
F154.69487531814673
sS'bell'
p911
F133.01193894695211
sS'followup'
p912
F152.7480950023608
sS'ac'
p913
F264.81363244136941
sS'sometimes'
p914
F117.33425261224532
sS'flat'
p915
F145.75460486756381
sS'm'
F383.28162483947125
sS'cleveland'
p916
F118.68614518816484
sS'mike'
p917
F128.49300066590709
sS'doesn'
p918
F243.00746125326174
sS'general'
p919
F151.7724119591484
sS'engineering'
p920
F164.15263443443223
sS'warning'
p921
F190.06938356179162
sS'au'
p922
F201.39521503683252
sS'cbnewsj'
p923
F114.41762460182186
sS'20'
p924
F361.66129889437485
sS'ericsson'
p925
F165.56464738243974
sS'check'
p926
F209.53384191180476
sS'inc'
p927
F245.38592185640351
sS'uokmax'
p928
F227.95592420641054
sS'nj'
p929
F169.81307010458505
sS'uucp'
p930
F261.4402117436552
sS'48'
p931
F125.53615716985982
sS'49'
p932
F120.9962574124628
sS'46'
p933
F136.44808272531995
sS'corporation'
p934
F150.78208958043621
sS'drivers'
p935
F209.99885578816958
sS'45'
p936
F164.15263443443223
sS'42'
p937
F158.53219735358434
sS'43'
p938
F140.6499531545156
sS'40'
p939
F205.58589385152234
sS'41'
p940
F195.27676393334755
sS'westminster'
p941
F191.335760636055
sS'tin'
p942
F127.76732849111318
sS'caltech'
p943
F175.4735057747379
sS'5'
F369.70405525731877
sS'normal'
p944
F116.34827191841094
sS'fs7'
p945
F321.49700389776734
sS'test'
p946
F160.53241778298246
sS'10'
p947
F319.50799723055286
sS'batcomputer'
p948
F132.15531685812013
sS'models'
p949
F217.32439726915223
sS'problems'
p950
F227.95592420641054
sS'oasys'
p951
F187.5489370499441
sS'taurus'
p952
F198.98162327881855
sS'important'
p953
F160.42342462426487
sS'ubc'
p954
F171.942262541182
sS'chris'
p955
F137.43688838281054
sS'sequent'
p956
F136.44990870062628
sS'ago'
p957
F187.80035353779834
sS'lane'
p958
F127.39147426472348
sS'land'
p959
F119.39367011304799
sS'e'
F295.58682289782428
sS'wife'
p960
F154.69487531814673
sS'mailing'
p961
F123.27935804839464
sS'vehicles'
p962
F173.17894832421533
sS'changed'
p963
F140.6499531545156
sS'original'
p964
F120.68665982973803
sS'nasa'
p965
F276.90666745426415
sS'u'
F293.51527355735755
sS'fact'
p966
F197.98797926817903
sS'time'
p967
F363.29843570863471
sS'serious'
p968
F120.9962574124628
sS'12'
p969
F284.46508847851493
sS'oklahoma'
p970
F144.7648790818325
sS'others'
p971
F164.15263443443223
s.