(dp1
S''
F715.32209931313639
sS'lotto'
p2
F131.38771467458358
sS'chain'
p3
F236.14138050051039
sS'cruncher'
p4
F140.6499531545156
sS'steve'
p5
F127.76732849111318
sS'gt'
p6
F116.34827191841094
sS'go'
p7
F359.66866400708471
sS'asphaug'
p8
F158.92555345520086
sS'mercer'
p9
F120.9962574124628
sS'seemed'
p10
F142.71805059948957
sS'rd'
p11
F293.16017212933161
sS'hold'
p12
F114.96742164844318
sS'tx'
p13
F138.56012471218691
sS'everything'
p14
F145.75460486756381
sS'technique'
p15
F134.31332273774666
sS'peachnet'
p16
F142.71805059948957
sS'send'
p17
F151.82771340371229
sS'0'
F175.12627394507177
sS'i88'
p18
F157.6136465505646
sS'bike'
p19
F145.68879178772858
sS'ti'
p20
F176.98400223591261
sS'dartmouth'
p21
F118.10811453289769
sS'sorry'
p22
F116.34827191841094
sS'stafford'
p23
F393.82540209229302
sS'9937'
p24
F124.05499670227069
sS'worth'
p25
F116.34827191841094
sS'bogus'
p26
F199.53256290035219
sS'started'
p27
F140.6499531545156
sS'division'
p28
F118.68614518816484
sS'drunk'
p29
F130.96151170339101
sS'jlevine'
p30
F152.7480950023608
sS'far'
p31
F230.25850929940458
sS'faq'
p32
F126.52355168124713
sS'utexas'
p33
F338.09412958120697
sS'mph'
p34
F144.71835247717297
sS'wave'
p35
F211.31579897305608
sS'spool'
p36
F113.9818453947526
sS'stolen'
p37
F113.9818453947526
sS'every'
p38
F192.67307374756959
sS'mps'
p39
F398.23949418868165
sS'uwm'
p40
F193.27664540218544
sS'tank'
p41
F199.98808885601935
sS'drinking'
p42
F180.11258744500404
sS'difference'
p43
F154.86426767178656
sS'behanna'
p44
F340.58108573929724
sS'cable'
p45
F113.9818453947526
sS'level'
p46
F120.9962574124628
sS'turns'
p47
F116.34827191841094
sS'list'
p48
F307.56918558221798
sS'ryan'
p49
F146.79088140414555
sS'try'
p50
F217.12296987591182
sS'p'
F221.62388672783931
sS'science'
p51
F118.68614518816484
sS'small'
p52
F176.93571536579867
sS'guy'
p53
F190.06938356179162
sS'bgardner'
p54
F181.80811665817168
sS'jeff'
p55
F140.6499531545156
sS'tek'
p56
F236.92435563177963
sS'says'
p57
F241.80475854367833
sS'uea'
p58
F273.65705096088033
sS'qmw'
p59
F137.44869591720166
sS'necessarily'
p60
F118.68614518816484
sS'tires'
p61
F136.31368341004705
sS'gator'
p62
F150.78208958043621
sS'street'
p63
F169.61787453015978
sS'zx'
p64
F182.80083501881006
sS'megatek'
p65
F228.45933566336944
sS'earth'
p66
F119.67250825893697
sS'cactus'
p67
F173.17894832421533
sS'even'
p68
F322.27816140923278
sS'pipex'
p69
F158.53219735358434
sS'rchland'
p70
F145.75460486756381
sS'elroy'
p71
F154.69487531814673
sS'chicago'
p72
F113.9818453947526
sS'sun'
p73
F483.89566390796961
sS'pipes'
p74
F129.97351208864953
sS'cb360t'
p75
F113.9818453947526
sS'nec'
p76
F368.17651264358847
sS'netnews'
p77
F142.65026830374359
sS'access'
p78
F156.62279306248197
sS'lights'
p79
F123.27935804839464
sS'version'
p80
F194.86018914176245
sS'usenet'
p81
F435.67092346948351
sS'goes'
p82
F160.42342462426487
sS'reply'
p83
F321.49700389776734
sS'net'
p84
F254.46427580976692
sS'ever'
p85
F227.31048748888716
sS'public'
p86
F140.6499531545156
sS'wheelies'
p87
F173.17894832421533
sS'told'
p88
F148.79648231289059
sS'body'
p89
F135.30187202140871
sS'helmets'
p90
F141.63923859467994
sS'full'
p91
F186.14820258529446
sS'morgan'
p92
F257.68440380877445
sS'seahunt'
p93
F144.7648790818325
sS'never'
p94
F287.59840383051011
sS'47'
p95
F114.96742164844318
sS'let'
p96
F215.30158292324975
sS'berkeley'
p97
F235.52716634194843
sS'valve'
p98
F116.34827191841094
sS'mavenry'
p99
F188.49851802292244
sS'100'
p100
F153.73860114083692
sS'quite'
p101
F190.06938356179162
sS'change'
p102
F155.6855583677908
sS'maven'
p103
F119.67250825893697
sS'39'
p104
F144.7648790818325
sS'38'
p105
F144.7648790818325
sS'sender'
p106
F303.02955221225767
sS'ctr'
p107
F140.6499531545156
sS'33'
p108
F178.40213553301729
sS'32'
p109
F152.78234595125355
sS'31'
p110
F195.27676393334755
sS'30'
p111
F266.1375072984344
sS'37'
p112
F144.7648790818325
sS'calvin'
p113
F176.67653490212126
sS'experience'
p114
F156.62279306248197
sS'34'
p115
F151.7724119591484
sS'moto'
p116
F134.31332273774666
sS'usually'
p117
F161.41460094183134
sS'opinion'
p118
F171.88224066885522
sS'bob'
p119
F121.98298255450275
sS'sound'
p120
F114.96742164844318
sS'makes'
p121
F192.67307374756959
sS'pica'
p122
F221.16808026985765
sS'love'
p123
F124.26642653171854
sS'apple'
p124
F247.35056764890692
sS'srgenprp'
p125
F113.9818453947526
sS'triumf'
p126
F114.96742164844318
sS'put'
p127
F264.18463082603995
sS'pillion'
p128
F164.15263443443223
sS'amherst'
p129
F113.58663941401956
sS'apply'
p130
F118.68614518816484
sS'kind'
p131
F129.76774531409961
sS'wouldn'
p132
F136.44808272531995
sS'jpl'
p133
F154.69487531814673
sS'1993apr22'
p134
F173.40664771814721
sS'1993apr23'
p135
F206.57991770839973
sS'use'
p136
F264.23253425152814
sS'1993apr21'
p137
F291.13321809375077
sS'usc'
p138
F260.00959225796674
sS'takes'
p139
F129.97351208864953
sS'would'
p140
F369.42847603021011
sS'army'
p141
F240.94078681976515
sS'tcora'
p142
F162.60813582203903
sS'cray'
p143
F166.09752703844711
sS'next'
p144
F225.31041663022179
sS'live'
p145
F215.89990248011941
sS'randy'
p146
F250.25588045433409
sS'call'
p147
F150.78208958043621
sS'cwru'
p148
F215.49364777207765
sS'taken'
p149
F116.34827191841094
sS'indiana'
p150
F180.47635270229799
sS'jonathan'
p151
F173.17894832421533
sS'type'
p152
F168.80464300560217
sS'tell'
p153
F196.43057682652602
sS'today'
p154
F118.68614518816484
sS'hydro'
p155
F295.12061703898081
sS'sort'
p156
F138.56012471218691
sS'squid'
p157
F117.33425261224532
sS'posting'
p158
F321.71351796923625
sS'club'
p159
F310.78325008375106
sS'company'
p160
F158.50428303493845
sS'uiuc'
p161
F204.31398626925039
sS'gtefsd'
p162
F338.41716012449348
sS'8'
F216.92915397928022
sS'91'
p163
F161.7695427719155
sS'90'
p164
F187.80035353779834
sS'93'
p165
F359.12586070523588
sS'92'
p166
F150.78208958043621
sS'riders'
p167
F210.24388828453317
sS'97'
p168
F144.7648790818325
sS'must'
p169
F198.98162327881855
sS'passenger'
p170
F178.40213553301729
sS'torn'
p171
F118.68614518816484
sS'1993'
p172
F261.86482447133761
sS'1992'
p173
F111.58602689407719
sS'ma'
p174
F158.62302173322084
sS'ibm'
p175
F259.01516803092528
sS'locks'
p176
F114.96742164844318
sS'car'
p177
F268.23307822204413
sS'ride'
p178
F381.80565196996008
sS'oh'
p179
F208.06283233166118
sS'mu'
p180
F113.9818453947526
sS'upenn'
p181
F126.21616554807932
sS'ms'
p182
F156.6951127012376
sS'learn'
p183
F156.62279306248197
sS'brake'
p184
F141.59498234798585
sS'reston'
p185
F330.19139946947786
sS'something'
p186
F279.18802560494225
sS'give'
p187
F217.12296987591182
sS'lock'
p188
F223.93894160462406
sS'suggestions'
p189
F125.53615716985982
sS'high'
p190
F189.43841951755789
sS'heard'
p191
F186.80733035759181
sS'racing'
p192
F145.75460486756381
sS'blaine'
p193
F171.40647426061747
sS'want'
p194
F290.83550528181087
sS'handle'
p195
F113.9818453947526
sS'times'
p196
F154.86426767178656
sS'robinson'
p197
F163.26709950135859
sS'b329'
p198
F148.79648231289059
sS'simple'
p199
F111.58602689407719
sS'information'
p200
F116.34827191841094
sS'needs'
p201
F154.69487531814673
sS'spc'
p202
F127.76732849111318
sS'end'
p203
F217.32439726915223
sS'eng'
p204
F352.92863659649254
sS'rather'
p205
F173.17894832421533
sS'csd'
p206
F133.01193894695211
sS'clarke'
p207
F140.26231589279928
sS'means'
p208
F140.6499531545156
sS'yuk'
p209
F113.05273683950202
sS'csc'
p210
F116.5041221114932
sS'1'
F442.10361790905716
sS'cmptrc'
p211
F169.81307010458505
sS'answer'
p212
F123.27935804839464
sS'speedy'
p213
F340.95394361287521
sS'dwi'
p214
F118.68614518816484
sS'stock'
p215
F154.69487531814673
sS'administrator'
p216
F113.9818453947526
sS'tried'
p217
F165.99123228884216
sS'may'
p218
F313.32642278602572
sS'max'
p219
F191.46672265916001
sS'advice'
p220
F271.32871835401573
sS'spot'
p221
F121.98298255450275
sS'cso'
p222
F187.82594683207557
sS'gardner'
p223
F165.99123228884216
sS'ducati'
p224
F140.6499531545156
sS'latech'
p225
F319.76760360582983
sS'court'
p226
F113.9818453947526
sS'hawk'
p227
F165.99123228884216
sS'man'
p228
F113.9818453947526
sS'seca'
p229
F120.47067816638437
sS'short'
p230
F143.70756083178767
sS'vehicle'
p231
F125.53615716985982
sS'remember'
p232
F146.79088140414555
sS'light'
p233
F204.09100303721419
sS'irwin'
p234
F116.78907971074096
sS'604'
p235
F141.72865504809928
sS'harley'
p236
F274.28610707335088
sS'q'
F126.27608017314546
sS'switch'
p237
F150.87658024215906
sS'ones'
p238
F133.01193894695211
sS'green'
p239
F256.55188788021098
sS'pl8'
p240
F113.9818453947526
sS'mjs'
p241
F266.02724752612312
sS'sg'
p242
F114.41762460182186
sS'order'
p243
F181.10519819260847
sS'wind'
p244
F116.34827191841094
sS'help'
p245
F249.72903551757878
sS'move'
p246
F146.79088140414555
sS'zen'
p247
F182.11273597603267
sS'years'
p248
F233.12653112359874
sS'pettefar'
p249
F158.53219735358434
sS'tti'
p250
F137.34987812794665
sS'motorcycle'
p251
F344.10512223923234
sS'dixon'
p252
F111.58602689407719
sS'hell'
p253
F161.41460094183134
sS'interceptor'
p254
F140.6499531545156
sS'still'
p255
F287.97438711855301
sS'ticket'
p256
F132.15531685812013
sS'galaxy'
p257
F157.9008219398608
sS'24'
p258
F253.43576800624751
sS'25'
p259
F269.32867419018424
sS'26'
p260
F218.51433229625704
sS'27'
p261
F194.27003740843699
sS'20'
p262
F368.06944153744274
sS'21'
p263
F375.2673315904359
sS'fit'
p264
F179.70033591838927
sS'23'
p265
F349.40472665593768
sS'll'
p266
F344.57227653565263
sS'jim'
p267
F120.68665982973803
sS'28'
p268
F165.99123228884216
sS'29'
p269
F190.06938356179162
sS'actually'
p270
F207.06873788931293
sS'better'
p271
F240.14183178109747
sS'thinking'
p272
F134.31332273774666
sS'systems'
p273
F201.06448994477586
sS'400'
p274
F139.50032621265709
sS'jody'
p275
F188.44530032402969
sS'mail'
p276
F256.65557657836342
sS'weeks'
p277
F136.44808272531995
sS'might'
p278
F234.39467259775984
sS'pixel'
p279
F144.7648790818325
sS'texas'
p280
F118.34881640280915
sS'lmsc'
p281
F118.10811453289769
sS'car377'
p282
F164.15263443443223
sS'non'
p283
F117.33425261224532
sS'someone'
p284
F262.1366879514195
sS'curtis'
p285
F123.27935804839464
sS'jvnc'
p286
F111.58602689407719
sS'3'
F272.33734807394421
sS'dan'
p287
F111.58602689407719
sS'cover'
p288
F119.67250825893697
sS'cogsci'
p289
F116.34827191841094
sS'noc'
p290
F370.03171385057198
sS'1991'
p291
F113.9818453947526
sS'das'
p292
F365.45790913960445
sS'front'
p293
F321.70909147743845
sS'sixsmith'
p294
F125.53615716985982
sS'cage'
p295
F189.67218149795011
sS'day'
p296
F253.0503086224098
sS'feet'
p297
F178.40213553301729
sS'several'
p298
F120.9962574124628
sS'name'
p299
F212.44070294849712
sS'uknet'
p300
F180.69488265982983
sS'always'
p301
F189.43841951755789
sS'university'
p302
F366.45642399036143
sS'didn'
p303
F250.45403583308826
sS'l'
F178.67669271546023
sS'boots'
p304
F119.67250825893697
sS'egreen'
p305
F257.85075116829961
sS'found'
p306
F176.93571536579867
sS'went'
p307
F191.06259616186344
sS'side'
p308
F250.88748547179091
sS'mean'
p309
F191.06259616186344
sS'heavy'
p310
F112.57117467801669
sS'week'
p311
F125.53615716985982
sS'cost'
p312
F157.6136465505646
sS'weight'
p313
F152.7480950023608
sS'fairly'
p314
F123.27935804839464
sS'michael'
p315
F234.39467259775984
sS'hard'
p316
F218.11751529434113
sS'idea'
p317
F173.17894832421533
sS'police'
p318
F132.15531685812013
sS'carry'
p319
F120.9962574124628
sS'88'
p320
F125.53615716985982
sS'oil'
p321
F174.43146443912227
sS'csundh30'
p322
F171.47767050324117
sS'year'
p323
F189.43841951755789
sS'82'
p324
F147.88809267456301
sS'81'
p325
F127.76732849111318
sS'86'
p326
F129.97351208864953
sS'insurance'
p327
F232.56109439239864
sS'es'
p328
F291.59328332099034
sS'really'
p329
F319.94288953952559
sS'canada'
p330
F183.48894254836168
sS'bikers'
p331
F164.29700453007831
sS'myrddin'
p332
F138.44842718469727
sS'jackson'
p333
F120.9962574124628
sS'network'
p334
F136.44808272531995
sS'driving'
p335
F205.08495460086647
sS'sutherland'
p336
F158.53219735358434
sS'robert'
p337
F144.71835247717297
sS'since'
p338
F219.89482619422836
sS'questor'
p339
F217.59013475945591
sS'research'
p340
F274.31286073525371
sS'looking'
p341
F235.3898955034395
sS'stuff'
p342
F222.62367331385857
sS'ra'
p343
F155.77807822480753
sS'7'
F176.67653490212126
sS'internet'
p344
F167.81288488852957
sS'got'
p345
F330.30383670065584
sS'dsd'
p346
F199.53256290035219
sS'gov'
p347
F398.12172540565649
sS'cause'
p348
F113.9818453947526
sS'red'
p349
F178.40213553301729
sS'ece'
p350
F330.54746691389141
sS'arizona'
p351
F171.88224066885522
sS'dirt'
p352
F117.33425261224532
sS'guess'
p353
F127.76732849111318
sS'free'
p354
F154.69487531814673
sS'standard'
p355
F158.53219735358434
sS'reason'
p356
F118.68614518816484
sS'jeq'
p357
F132.15531685812013
sS'california'
p358
F163.28812863541245
sS'members'
p359
F118.68614518816484
sS'x'
F315.84287619454204
sS'ask'
p360
F148.79115913563805
sS'org'
p361
F408.79187047134161
sS'syl'
p362
F216.30724334084979
sS'steering'
p363
F140.6499531545156
sS'owners'
p364
F162.60813582203903
sS'thread'
p365
F123.27935804839464
sS'could'
p366
F305.75974597414142
sS'area'
p367
F198.98162327881855
sS'days'
p368
F132.15531685812013
sS'keep'
p369
F268.2805165752809
sS'thing'
p370
F315.2095724799795
sS'att'
p371
F380.25473790876555
sS'place'
p372
F174.935552581536
sS'isn'
p373
F170.60976630333838
sS'w'
F210.08702666430224
sS'ltd'
p374
F132.15531685812013
sS'isc'
p375
F196.29718783753094
sS'disclaimer'
p376
F188.44530032402969
sS'onto'
p377
F123.27935804839464
sS'think'
p378
F336.07958679756064
sS'first'
p379
F334.51788628380518
sS'feed'
p380
F154.69487531814673
sS'already'
p381
F136.44808272531995
sS'evans'
p382
F120.9962574124628
sS'feel'
p383
F161.41460094183134
sS'meet'
p384
F111.58602689407719
sS'number'
p385
F165.99123228884216
sS'one'
p386
F334.60851530971433
sS'vtserf'
p387
F144.7648790818325
sS'set'
p388
F118.68614518816484
sS'done'
p389
F178.40213553301729
sS'fast'
p390
F182.11273597603267
sS'another'
p391
F223.97225284596044
sS'owner'
p392
F140.6499531545156
sS'open'
p393
F153.73860114083692
sS'size'
p394
F166.98285226950864
sS'little'
p395
F310.48149951830146
sS'law'
p396
F150.79674904357552
sS'service'
p397
F164.15263443443223
sS'needed'
p398
F116.34827191841094
sS'top'
p399
F157.6136465505646
sS'system'
p400
F260.00959225796674
sS'least'
p401
F258.93417150383243
sS'plastic'
p402
F135.25579017463903
sS'anyone'
p403
F318.41210384785313
sS'paint'
p404
F156.62279306248197
sS'attack'
p405
F134.31332273774666
sS'2'
F399.57913042962736
sS'650'
p406
F134.31332273774666
sS'tom'
p407
F150.78208958043621
sS'compdyn'
p408
F217.59013475945591
sS'white'
p409
F148.79115913563805
sS'john'
p410
F236.9022031191445
sS'dogs'
p411
F233.57617831360224
sS'friend'
p412
F154.69487531814673
sS'umanitoba'
p413
F188.60239262696851
sS'gear'
p414
F189.21438617138199
sS'st'
p415
F129.97351208864953
sS'ncr'
p416
F141.63053629420082
sS'wax'
p417
F136.44808272531995
sS'took'
p418
F150.78208958043621
sS'part'
p419
F140.6499531545156
sS'parr'
p420
F199.45418043156161
sS'tekgen'
p421
F129.97351208864953
sS'minutes'
p422
F123.27935804839464
sS'haven'
p423
F217.72070183249974
sS'std'
p424
F176.92574771872964
sS'10'
p425
F306.76259769031765
sS'1993apr15'
p426
F334.26266323043757
sS'b'
F179.3806729114502
sS'15'
p427
F381.21713116434762
sS'14'
p428
F320.60589624172434
sS'17'
p429
F309.37574283665236
sS'16'
p430
F373.63990585178118
sS'19'
p431
F320.89215670122007
sS'18'
p432
F325.66809460343575
sS'second'
p433
F156.62279306248197
sS'1993apr19'
p434
F205.58589385152234
sS'ebay'
p435
F143.73824455250232
sS'project'
p436
F124.26642653171854
sS'ccu'
p437
F155.937991540876
sS'r'
F237.97051864883295
sS'flame'
p438
F169.01753665770764
sS'magnesium'
p439
F274.25935440455561
sS'maybe'
p440
F215.72061952187585
sS'college'
p441
F158.53219735358434
sS'ak296'
p442
F127.76732849111318
sS'karr'
p443
F202.78917696669663
sS'san'
p444
F165.32405934373097
sS'wupost'
p445
F176.67653490212126
sS'craig'
p446
F115.58138921528986
sS'half'
p447
F112.57117467801669
sS'pass'
p448
F118.68614518816484
sS'mind'
p449
F152.7480950023608
sS'mine'
p450
F126.52355168124713
sS'talking'
p451
F120.9962574124628
sS'say'
p452
F271.33858966921548
sS'buy'
p453
F235.12659396688022
sS'motorcycling'
p454
F116.34827191841094
sS'ans'
p455
F331.20169841861372
sS'need'
p456
F306.22576621916602
sS'seen'
p457
F186.80733035759181
sS'seem'
p458
F158.53219735358434
sS'turn'
p459
F251.49551785994467
sS'saw'
p460
F171.61805372236222
sS'lbl'
p461
F153.3207941893358
sS'sat'
p462
F144.7648790818325
sS'sell'
p463
F120.9962574124628
sS'nott'
p464
F116.34827191841094
sS'joesbar'
p465
F136.44808272531995
sS'rochester'
p466
F369.49653119654602
sS'mil'
p467
F304.99724544903961
sS'rtsg'
p468
F274.00762606629144
sS'magnus'
p469
F136.44808272531995
sS'ncsu'
p470
F145.98871347836209
sS'able'
p471
F174.935552581536
sS'note'
p472
F111.58602689407719
sS'also'
p473
F322.04687692242288
sS'contact'
p474
F146.76516850905978
sS'take'
p475
F289.10687306881402
sS'new'
p476
F366.6263075077614
sS'grips'
p477
F121.98298255450275
sS'fist'
p478
F127.45654016384387
sS'rides'
p479
F134.31332273774666
sS'rider'
p480
F358.2891116369895
sS'pebbles'
p481
F134.31332273774666
sS'sure'
p482
F266.23257370066045
sS'unless'
p483
F167.81288488852957
sS'norman'
p484
F113.9818453947526
sS'though'
p485
F197.98797926817903
sS'price'
p486
F118.68614518816484
sS'01'
p487
F190.86557774022816
sS'71'
p488
F117.33425261224532
sS'nothing'
p489
F211.44640641184193
sS'eskimo'
p490
F257.62435723741663
sS'beth'
p491
F168.16842224996432
sS'vax5'
p492
F180.47635270229799
sS'stupid'
p493
F150.78208958043621
sS'richard'
p494
F134.31332273774666
sS'rogers'
p495
F165.99123228884216
sS'doc'
p496
F146.79088140414555
sS'later'
p497
F154.69487531814673
sS'request'
p498
F172.39849542409684
sS'sale'
p499
F162.29679930083591
sS'dod'
p500
F249.31467577823733
sS'sf'
p501
F190.18793620700015
sS'uupcb'
p502
F138.56012471218691
sS'tech'
p503
F138.56012471218691
sS'clean'
p504
F120.9962574124628
sS'effect'
p505
F158.53219735358434
sS'mailing'
p506
F127.76732849111318
sS'08'
p507
F175.17911631803386
sS'fact'
p508
F160.42342462426487
sS'shop'
p509
F137.43688838281054
sS'show'
p510
F134.15569491566882
sS'charles'
p511
F201.06448994477586
sS'anyway'
p512
F174.935552581536
sS'watch'
p513
F116.34827191841094
sS'biker'
p514
F209.99885578816958
sS'bikes'
p515
F343.63362322254216
sS'cds'
p516
F152.23975630681352
sS'keywords'
p517
F215.72061952187585
sS'large'
p518
F214.46404995678839
sS'fine'
p519
F150.87658024215906
sS'find'
p520
F207.06873788931293
sS'ground'
p521
F185.48908259261609
sS'ogicse'
p522
F134.31332273774666
sS'slow'
p523
F118.68614518816484
sS'countersteering'
p524
F214.46404995678839
sS'cookson'
p525
F237.83461168747263
sS'unix'
p526
F127.53659565097429
sS'blue'
p527
F111.58602689407719
sS'behind'
p528
F218.51433229625704
sS'vision'
p529
F111.58602689407719
sS'going'
p530
F305.27668110027832
sS'black'
p531
F202.58391856914861
sS'central'
p532
F170.06181170657229
sS'pretty'
p533
F181.80811665817168
sS'woodward'
p534
F111.58602689407719
sS'folks'
p535
F142.71805059948957
sS'riding'
p536
F354.2298312079734
sS'darwin'
p537
F269.33855308822149
sS'local'
p538
F148.79648231289059
sS'11'
p539
F289.83228639028562
sS'hit'
p540
F168.80464300560217
sS'1993apr6'
p541
F146.79088140414555
sS'1993apr5'
p542
F180.11258744500404
sS'get'
p543
F356.25046588047138
sS'air'
p544
F128.57665728717859
sS'yfn'
p545
F171.40647426061747
sS'honda'
p546
F276.34230907503166
sS'stop'
p547
F212.44070294849712
sS'13'
p548
F300.67992638298421
sS'likely'
p549
F113.9818453947526
sS'wheelie'
p550
F111.58602689407719
sS'1993apr14'
p551
F213.44649449739077
sS'ursa'
p552
F187.39105479219134
sS'unisql'
p553
F149.82277618633185
sS'throttle'
p554
F121.98298255450275
sS'dt'
p555
F114.96742164844318
sS'lynn'
p556
F114.9361726946552
sS'runs'
p557
F117.33425261224532
sS'news2me'
p558
F111.58602689407719
sS'showed'
p559
F120.9962574124628
sS'course'
p560
F232.84381150118236
sS'leather'
p561
F134.15569491566882
sS'h'
F245.75457029910896
sS'decwrl'
p562
F133.14359774934829
sS'summary'
p563
F144.7648790818325
sS'bad'
p564
F216.30724334084979
sS'miles'
p565
F239.91662426312101
sS'ohio'
p566
F562.24792813890974
sS'wrote'
p567
F239.37199884932329
sS'looks'
p568
F164.15263443443223
sS'bars'
p569
F120.9962574124628
sS'barr'
p570
F138.56012471218691
sS'svoboda'
p571
F247.66622185903836
sS'problem'
p572
F216.71510477866846
sS'frame'
p573
F144.7648790818325
sS'cjackson'
p574
F155.6855583677908
sS'seat'
p575
F186.51132351179081
sS'see'
p576
F319.31239057615318
sS'arc'
p577
F209.63547747758523
sS'zaphod'
p578
F365.67995711272488
sS'infante'
p579
F318.27087530107008
sS'parking'
p580
F131.97390881959623
sS'close'
p581
F123.27935804839464
sS'sport'
p582
F154.69487531814673
sS'paul'
p583
F134.31332273774666
sS'sei'
p584
F345.57558496258827
sS'02'
p585
F194.86018914176245
sS'03'
p586
F173.17894832421533
sS'00'
p587
F254.48245859763742
sS'said'
p588
F244.20115555021721
sS'06'
p589
F141.63923859467994
sS'07'
p590
F160.42342462426487
sS'04'
p591
F190.44542893973917
sS'05'
p592
F179.39463543907698
sS'away'
p593
F197.98797926817903
sS'09'
p594
F147.780814062704
sS'please'
p595
F277.17380743608447
sS'state'
p596
F454.41908165839664
sS'won'
p597
F164.15263443443223
sS'probably'
p598
F226.6382720270596
sS'previous'
p599
F140.6499531545156
sS'nntp'
p600
F332.12432914943736
sS'email'
p601
F157.6136465505646
sS'bought'
p602
F154.69487531814673
sS'available'
p603
F144.7648790818325
sS'altcit'
p604
F179.82616981247929
sS'bclarke'
p605
F116.34827191841094
sS'europa'
p606
F338.41716012449348
sS'wanted'
p607
F181.80811665817168
sS'sold'
p608
F116.34827191841094
sS'however'
p609
F127.76732849111318
sS'harvard'
p610
F379.93609542953135
sS'joe'
p611
F257.76532839201877
sS'agate'
p612
F281.76372800942835
sS'group'
p613
F181.80811665817168
sS'ames'
p614
F191.67977024299117
sS'come'
p615
F160.42342462426487
sS'tue'
p616
F266.29761190037055
sS'david'
p617
F214.30715917001658
sS'cop'
p618
F179.39463543907698
sS'c'
F288.88537676436971
sS'bdrc'
p619
F127.73805593362293
sS'last'
p620
F274.25935440455561
sS'22'
p621
F348.02444786302107
sS'cousineau'
p622
F123.27935804839464
sS'many'
p623
F222.25928669094051
sS'taking'
p624
F154.69487531814673
sS'yamaha'
p625
F221.26456841387008
sS'called'
p626
F132.15531685812013
sS'etc'
p627
F238.90226245540904
sS'wheels'
p628
F127.53659565097429
sS'whole'
p629
F116.34827191841094
sS'maidenhead'
p630
F123.27935804839464
sS'wear'
p631
F154.69487531814673
sS'ch'
p632
F133.24920009815932
sS'co'
p633
F336.06281573990793
sS'point'
p634
F213.21782382726971
sS'cc'
p635
F393.48531881861135
sS'cb'
p636
F324.74820328810995
sS'ca'
p637
F159.36790839205725
sS'others'
p638
F120.9962574124628
sS'uunet'
p639
F380.05508861148979
sS'flames'
p640
F118.68614518816484
sS'twin'
p641
F118.68614518816484
sS'article'
p642
F156.08973704161761
sS'tony'
p643
F250.42634329979467
sS'linus'
p644
F197.42408346953025
sS'uug'
p645
F120.9962574124628
sS'58'
p646
F132.15531685812013
sS'west'
p647
F182.42702693766776
sS'fri'
p648
F269.33855308822149
sS'three'
p649
F145.75460486756381
sS'mark'
p650
F153.73860114083692
sS'much'
p651
F328.84782891374647
sS'louisiana'
p652
F111.58602689407719
sS'500'
p653
F134.31332273774666
sS'walter'
p654
F123.27935804839464
sS'followup'
p655
F150.78208958043621
sS'mike'
p656
F289.83228639028562
sS'bit'
p657
F194.86018914176245
sS'acpub'
p658
F202.58391856914861
sS'face'
p659
F208.13582478852018
sS'gas'
p660
F177.95973721197092
sS'great'
p661
F221.89490327977799
sS'netcom'
p662
F289.65348146489146
sS'else'
p663
F218.51433229625704
sS'dave'
p664
F225.31041663022179
sS'corner'
p665
F112.57117467801669
sS'bmw'
p666
F374.90558925765311
sS'imat'
p667
F193.55382531403419
sS'general'
p668
F113.9818453947526
sS'former'
p669
F125.53615716985982
sS'incorporated'
p670
F113.9818453947526
sS'case'
p671
F170.60976630333838
sS'shaft'
p672
F266.29761190037055
sS'handling'
p673
F127.76732849111318
sS'laser'
p674
F167.81288488852957
sS'look'
p675
F233.12653112359874
sS'straight'
p676
F111.58602689407719
sS'bill'
p677
F212.74080295462224
sS'neal'
p678
F133.03866098311062
sS'n'
F166.15283264656006
sS'dept'
p679
F125.53615716985982
sS'near'
p680
F366.76862842768111
sS'rutgers'
p681
F120.37562126585254
sS'jnmoyne'
p682
F113.1394209697803
sS'fun'
p683
F144.7648790818325
sS'bb3'
p684
F257.85075116829961
sS'k'
F154.69487531814673
sS'ysu'
p685
F264.87401695170593
sS'pack'
p686
F118.68614518816484
sS'real'
p687
F219.89482619422836
sS've'
p688
F370.09423463853381
sS'lachman'
p689
F166.76742365429445
sS'almost'
p690
F132.15531685812013
sS'freenet'
p691
F141.59498234798585
sS'quist'
p692
F123.27935804839464
sS'demon'
p693
F260.09065463833463
sS'36'
p694
F154.74834160540621
sS'contex'
p695
F126.82612159410229
sS'good'
p696
F363.89554826664585
sS'vt'
p697
F269.40245588030336
sS'35'
p698
F169.61787453015978
sS'engr'
p699
F285.63091599371762
sS'technology'
p700
F158.53219735358434
sS'helmet'
p701
F309.06605143390851
sS'different'
p702
F143.70756083178767
sS'design'
p703
F135.30187202140871
sS'perhaps'
p704
F125.53615716985982
sS'things'
p705
F190.06938356179162
sS'make'
p706
F318.5001620421906
sS'mimsy'
p707
F122.996744599463
sS'ama'
p708
F257.46976130212573
sS'parts'
p709
F131.97390881959623
sS'ryan_cousineau'
p710
F123.27935804839464
sS'9'
F127.76732849111318
sS'ray'
p711
F137.68077504729644
sS'wheel'
p712
F210.5397708118
sS'exhaust'
p713
F171.61805372236222
sS'used'
p714
F274.33982857448797
sS'columbia'
p715
F321.21116331261965
sS'iscp'
p716
F116.34827191841094
sS'ux1'
p717
F115.58138921528986
sS'drink'
p718
F148.79648231289059
sS'driver'
p719
F134.31332273774666
sS'drives'
p720
F145.75460486756381
sS'hand'
p721
F178.40213553301729
sS'sys'
p722
F272.57990963105556
sS'running'
p723
F118.68614518816484
sS'xref'
p724
F125.53615716985982
sS'user'
p725
F186.80733035759181
sS'caen'
p726
F190.06938356179162
sS'cycle'
p727
F120.68665982973803
sS'center'
p728
F134.31332273774666
sS'ranck'
p729
F256.3544733740784
sS'charlie'
p730
F118.04414253164596
sS'thu'
p731
F268.33238707285682
sS'well'
p732
F386.42247310226549
sS'know'
p733
F380.66524221046063
sS'crabapple'
p734
F358.45413962980041
sS'thought'
p735
F202.58391856914861
sS'person'
p736
F136.44808272531995
sS'without'
p737
F211.44640641184193
sS'comes'
p738
F116.34827191841094
sS'na'
p739
F120.9962574124628
sS'position'
p740
F112.57117467801669
sS'left'
p741
F301.64207759685513
sS'opinions'
p742
F201.06448994477586
sS'nc'
p743
F134.31332273774666
sS'cam'
p744
F117.33425261224532
sS'less'
p745
F201.06448994477586
sS'money'
p746
F162.29679930083591
sS'hands'
p747
F129.97351208864953
sS'thanks'
p748
F227.95592420641054
sS'questions'
p749
F138.56012471218691
sS'using'
p750
F116.34827191841094
sS'ucs'
p751
F181.79729196257369
sS'yes'
p752
F209.63547747758523
sS'speed'
p753
F215.30158292324975
sS'yet'
p754
F167.81288488852957
sS'mcguire'
p755
F164.84186831689561
sS'cut'
p756
F113.58663941401956
sS'wed'
p757
F246.56183917055313
sS'cornell'
p758
F319.96008735657153
sS'bnr'
p759
F392.06130042312009
sS'drive'
p760
F247.7289851057138
sS'seems'
p761
F196.43057682652602
sS'tin'
p762
F197.98797926817903
sS'battery'
p763
F164.15263443443223
sS'4'
F276.38464265417247
sS'easy'
p764
F169.81307010458505
sS'mitre'
p765
F300.13708180775569
sS'east'
p766
F395.10252335907552
sS'viking'
p767
F151.82771340371229
sS'around'
p768
F272.32508638209964
sS'read'
p769
F245.19671766094876
sS'big'
p770
F213.63102056632434
sS'couple'
p771
F174.935552581536
sS'possible'
p772
F154.69487531814673
sS'mot'
p773
F297.5710711525802
sS'npet'
p774
F190.06938356179162
sS'traffic'
p775
F186.14820258529446
sS'mon'
p776
F186.80733035759181
sS'lonestar'
p777
F148.79115913563805
sS'world'
p778
F343.63362322254216
sS'moa'
p779
F150.78208958043621
sS'tire'
p780
F169.81307010458505
sS'lady'
p781
F132.15531685812013
sS'rear'
p782
F228.32620357601485
sS'd'
F370.29331659021813
sS'59'
p783
F133.14359774934829
sS'like'
p784
F330.8983868624648
sS'55'
p785
F136.44808272531995
sS'54'
p786
F113.9818453947526
sS'57'
p787
F158.53219735358434
sS'56'
p788
F118.68614518816484
sS'51'
p789
F160.42342462426487
sS'50'
p790
F166.98285226950864
sS'53'
p791
F159.52321515623163
sS'mit'
p792
F132.00318683088565
sS'either'
p793
F162.29679930083591
sS'night'
p794
F190.06938356179162
sS'ivan'
p795
F133.58494889683374
sS'making'
p796
F125.53615716985982
sS'right'
p797
F356.58357030031073
sS'dean'
p798
F172.20750271265391
sS'often'
p799
F113.9818453947526
sS'people'
p800
F304.76257616786222
sS'back'
p801
F354.27023697066937
sS'dead'
p802
F150.78208958043621
sS'chuck'
p803
F132.15531685812013
sS'udel'
p804
F329.44088833616593
sS'organpipe'
p805
F120.9962574124628
sS'93apr20'
p806
F113.9818453947526
sS'convex'
p807
F151.82771340371229
sS'home'
p808
F173.17894832421533
sS'52'
p809
F126.52355168124713
sS'hpcc01'
p810
F114.6343464584007
sS'rpm'
p811
F120.9962574124628
sS'sura'
p812
F356.52576847941384
sS'lean'
p813
F152.7480950023608
sS'best'
p814
F207.06873788931293
sS'wrong'
p815
F129.76774531409961
sS'umd'
p816
F244.96965155026922
sS'virginia'
p817
F213.54195010770252
sS'machine'
p818
F123.27935804839464
sS'ucsd'
p819
F147.780814062704
sS'ucalgary'
p820
F226.77793060523089
sS'umn'
p821
F122.996744599463
sS'bd'
p822
F148.35768148520606
sS'run'
p823
F207.10974883327697
sS'ba'
p824
F182.11273597603267
sS'power'
p825
F156.62279306248197
sS'bc'
p826
F239.24714343209118
sS'deleted'
p827
F125.53615716985982
sS'problems'
p828
F138.56012471218691
sS'1993apr20'
p829
F313.63636102194192
sS'winona'
p830
F269.27090246907551
sS'host'
p831
F335.85060611862787
sS'corp'
p832
F187.5489370499441
sS'lockheed'
p833
F122.80491783056365
sS'klinger'
p834
F152.84579527786761
sS'post'
p835
F223.97225284596044
sS'nmm'
p836
F123.27935804839464
sS'msstate'
p837
F128.52941875638868
sS'dcs'
p838
F139.50032621265709
sS'microsystems'
p839
F148.79648231289059
sS'ok'
p840
F183.80826085219962
sS'usa'
p841
F258.93417150383243
sS'anything'
p842
F240.36739760065507
sS'getting'
p843
F228.95090745590716
sS'god'
p844
F140.6499531545156
sS'levine'
p845
F191.67977024299117
sS'o'
F620.16184007636946
sS'acs'
p846
F282.90207468731217
sS'stand'
p847
F143.70756083178767
sS'road'
p848
F306.94891862845486
sS'software'
p849
F138.56012471218691
sS'duke'
p850
F414.44189520492307
sS'aber'
p851
F212.80783814166162
sS'colorado'
p852
F255.21313177302866
sS'within'
p853
F119.67250825893697
sS'washington'
p854
F165.11081457269222
sS'sol'
p855
F129.97351208864953
sS'two'
p856
F325.60757361960384
sS'references'
p857
F162.53131881482352
sS'adobe'
p858
F260.39801406737632
sS'ontario'
p859
F125.53615716985982
sS'computer'
p860
F231.84868165675513
sS'1983'
p861
F125.53615716985982
sS'emory'
p862
F153.9556941246521
sS'aren'
p863
F121.98298255450275
sS'howland'
p864
F322.33419696769062
sS'question'
p865
F239.37199884932329
sS'hey'
p866
F204.58402018896871
sS'long'
p867
F242.59302165251299
sS'noticed'
p868
F113.9818453947526
sS'start'
p869
F142.65026830374359
sS'newsreader'
p870
F219.89482619422836
sS'low'
p871
F178.40213553301729
sS'way'
p872
F324.45751605765423
sS'ed'
p873
F327.97942398376182
sS'andy'
p874
F144.7648790818325
sS'instead'
p875
F113.9818453947526
sS'happy'
p876
F123.27935804839464
sS'bhm116e'
p877
F127.76732849111318
sS'head'
p878
F202.58391856914861
sS'bellcore'
p879
F211.55774705077081
sS'iastate'
p880
F207.53305835378313
sS'enough'
p881
F241.58840624607629
sS'hp'
p882
F448.20928869417713
sS'6'
F285.79118741111125
sS'carbs'
p883
F116.34827191841094
sS'yeah'
p884
F123.27935804839464
sS'sdd'
p885
F188.44530032402969
sS'gatech'
p886
F297.10040344985345
sS'pacific'
p887
F140.6499531545156
sS'line'
p888
F202.58391856914861
sS'trying'
p889
F134.31332273774666
sS'true'
p890
F163.28812863541245
sS'buying'
p891
F154.69487531814673
sS'posted'
p892
F116.34827191841094
sS'info'
p893
F146.79088140414555
sS'pull'
p894
F118.34881640280915
sS'made'
p895
F222.25928669094051
sS'stanford'
p896
F236.67414328701724
sS'dog'
p897
F350.87340417143605
sS'inside'
p898
F111.58602689407719
sS'j'
F142.71805059948957
sS'us'
p899
F354.39393592436227
sS'cis'
p900
F337.114002151764
sS'sr'
p901
F119.39367011304799
sS'limit'
p902
F116.34827191841094
sS'uh'
p903
F164.35791782822631
sS'uk'
p904
F397.98351342455953
sS'cit'
p905
F189.07046473574073
sS'sturges'
p906
F138.6870321565049
sS'distribution'
p907
F341.93503023093359
sS'piece'
p908
F172.94421529481929
sS'similar'
p909
F127.76732849111318
sS'agree'
p910
F148.79648231289059
sS'750'
p911
F167.81288488852957
sS'engine'
p912
F222.25928669094051
sS'ac'
p913
F415.8767166076762
sS'v'
F226.52104616268318
sS'600'
p914
F142.6538547314446
sS'1993apr16'
p915
F181.10519819260847
sS'm'
F377.03760682473057
sS'cleveland'
p916
F118.68614518816484
sS'wide'
p917
F118.68614518816484
sS'life'
p918
F154.69487531814673
sS'doesn'
p919
F222.62367331385857
sS'ins'
p920
F190.06938356179162
sS'cbnewsm'
p921
F132.96945362104108
sS'navy'
p922
F170.83873610614307
sS'engineering'
p923
F118.68614518816484
sS'cbnewsj'
p924
F228.71085731218253
sS'davet'
p925
F118.68614518816484
sS'work'
p926
F279.00155530470113
sS'check'
p927
F148.79648231289059
sS'inc'
p928
F253.43576800624751
sS'nj'
p929
F341.35209435428396
sS'uucp'
p930
F284.23039705069078
sS'mbunix'
p931
F144.7648790818325
sS'48'
p932
F152.7480950023608
sS'49'
p933
F164.15263443443223
sS'46'
p934
F136.44808272531995
sS'corporation'
p935
F186.80733035759181
sS'44'
p936
F194.27003740843699
sS'45'
p937
F152.7480950023608
sS'42'
p938
F167.81288488852957
sS'newsserver'
p939
F120.68665982973803
sS'40'
p940
F174.935552581536
sS'41'
p941
F146.79088140414555
sS'nick'
p942
F201.06448994477586
sS'old'
p943
F215.89990248011941
sS'5'
F335.05250493098691
sS'fs7'
p944
F328.94309168285753
sS'test'
p945
F116.34827191841094
sS'85'
p946
F125.53615716985982
sS'3com'
p947
F138.41166046933262
sS'cronkite'
p948
F134.31332273774666
sS'nice'
p949
F181.80811665817168
sS'picture'
p950
F125.53615716985982
sS'batcomputer'
p951
F127.76732849111318
sS'msus'
p952
F263.76613040662482
sS'mbeaving'
p953
F160.42342462426487
sS'andrew'
p954
F348.59344992061364
sS'sixgun'
p955
F239.37199884932329
sS'ubc'
p956
F151.65451885154397
sS'chris'
p957
F229.26347621408775
sS'hurt'
p958
F129.97351208864953
sS'friends'
p959
F131.97390881959623
sS'ago'
p960
F148.79648231289059
sS'lane'
p961
F125.27981992084068
sS'e'
F316.78777958207263
sS'faster'
p962
F129.97351208864953
sS'came'
p963
F137.43688838281054
sS'lot'
p964
F219.50893657784491
sS'together'
p965
F127.76732849111318
sS'jacket'
p966
F143.70756083178767
sS'nasa'
p967
F324.65001652335582
sS'u'
F195.17636053009608
sS'nelson'
p968
F169.91397881758303
sS'time'
p969
F360.91947365150747
sS'oracle'
p970
F173.66119619586175
sS'serious'
p971
F121.98298255450275
sS'12'
p972
F271.32871835401573
s.