(dp1
S''
F426.26555066131976
sS'code'
p2
F371.82943558734348
sS'consider'
p3
F146.79088140414555
sS'copy'
p4
F178.40213553301729
sS'steve'
p5
F354.43904859623626
sS'legal'
p6
F301.00459717084493
sS'go'
p7
F276.21834979315963
sS'alt'
p8
F189.25660046759535
sS'disk'
p9
F216.14432669063405
sS'cases'
p10
F164.15263443443223
sS'issues'
p11
F248.72466232117202
sS'whose'
p12
F148.79648231289059
sS'certainly'
p13
F186.80733035759181
sS'c445585'
p14
F204.14907535103217
sS'pem'
p15
F167.17940811832531
sS'peachnet'
p16
F176.67653490212126
sS'send'
p17
F263.18848687992556
sS'shall'
p18
F164.15263443443223
sS'0'
F367.41913494138106
sS'program'
p19
F298.09740344384858
sS'device'
p20
F302.14638466245901
sS'present'
p21
F144.7648790818325
sS'text'
p22
F267.29384304424116
sS'colostate'
p23
F335.12492268577
sS'include'
p24
F157.6136465505646
sS'worth'
p25
F160.42342462426487
sS'sent'
p26
F171.40647426061747
sS'bogus'
p27
F231.84868165675513
sS'sound'
p28
F166.15283264656006
sS'fax'
p29
F240.36739760065507
sS'worse'
p30
F148.79648231289059
sS'outside'
p31
F158.53219735358434
sS'far'
p32
F258.93417150383243
sS'faq'
p33
F314.04899952270011
sS'account'
p34
F185.15527813585751
sS'wiretap'
p35
F350.92562310791254
sS'908'
p36
F146.79088140414555
sS'every'
p37
F317.14260976116771
sS'mps'
p38
F392.95531145630895
sS'anonymous'
p39
F362.52893975642814
sS'little'
p40
F263.07711824789374
sS'special'
p41
F148.79648231289059
sS'governments'
p42
F167.81288488852957
sS'gov'
p43
F394.19410099502431
sS'cause'
p44
F147.780814062704
sS'cme'
p45
F154.69487531814673
sS'rights'
p46
F288.49199378792133
sS'companies'
p47
F246.56183917055313
sS'solution'
p48
F162.42363724998131
sS'standards'
p49
F231.55611097622864
sS'large'
p50
F209.99885578816958
sS'p'
F351.29067614370234
sS'yale'
p51
F230.69967877432299
sS'dgbt'
p52
F248.70313614145996
sS'vesselin'
p53
F176.67653490212126
sS'disclaimer'
p54
F154.69487531814673
sS'prevent'
p55
F201.06448994477586
sS'work'
p56
F345.95987405914912
sS'says'
p57
F210.24388828453317
sS'gtoal'
p58
F456.68299862966376
sS'phones'
p59
F290.5464472483439
sS'mail'
p60
F366.07253513377691
sS'past'
p61
F154.69487531814673
sS'dorothy'
p62
F194.86018914176245
sS'likely'
p63
F246.56183917055313
sS'cost'
p64
F225.97232518863325
sS'design'
p65
F217.32439726915223
sS'value'
p66
F176.67653490212126
sS'tempest'
p67
F200.52628669469414
sS'machines'
p68
F189.8290629813263
sS'even'
p69
F361.93104084042699
sS'pipex'
p70
F171.40647426061747
sS'errors'
p71
F199.53256290035219
sS'swrinde'
p72
F158.53219735358434
sS'constitution'
p73
F181.80811665817168
sS'elroy'
p74
F163.28812863541245
sS'lehman'
p75
F225.97232518863325
sS'sun'
p76
F266.07897323382593
sS'exactly'
p77
F148.79648231289059
sS'networks'
p78
F196.86030457388284
sS'access'
p79
F374.82994137484485
sS'version'
p80
F305.75974597414142
sS'usenet'
p81
F389.33040998791711
sS'tuinstra'
p82
F166.21181702630133
sS'everything'
p83
F144.7648790818325
sS'reply'
p84
F342.35590822526444
sS'ever'
p85
F215.30158292324975
sS'public'
p86
F321.52318976291531
sS'told'
p87
F181.80811665817168
sS'full'
p88
F209.53384191180476
sS'hash'
p89
F155.77807822480753
sS'exchange'
p90
F170.60976630333838
sS'never'
p91
F217.12296987591182
sS'commercial'
p92
F214.30715917001658
sS'answers'
p93
F366.82156194254043
sS'let'
p94
F312.09331391273065
sS'pub'
p95
F296.13416580879345
sS'groups'
p96
F205.08495460086647
sS'berkeley'
p97
F245.31191954907391
sS'strong'
p98
F318.5628658042346
sS'change'
p99
F231.26354288475471
sS'box'
p100
F183.80826085219962
sS'search'
p101
F204.58402018896871
sS'didn'
p102
F199.53256290035219
sS'arc'
p103
F145.82394039214336
sS'sender'
p104
F347.67334256454774
sS'technical'
p105
F282.67087774799631
sS'32'
p106
F208.5396785319335
sS'k'
F374.71908548598219
sS'30'
p107
F276.17731211855664
sS'37'
p108
F148.79648231289059
sS'36'
p109
F182.11273597603267
sS'35'
p110
F156.62279306248197
sS'34'
p111
F198.98162327881855
sS'mac'
p112
F157.6136465505646
sS'products'
p113
F173.17894832421533
sS'pick'
p114
F148.99402605284214
sS'correct'
p115
F161.41460094183134
sS'corp'
p116
F171.40647426061747
sS'bob'
p117
F148.99402605284214
sS'history'
p118
F174.935552581536
sS'makes'
p119
F226.30529714643919
sS'patents'
p120
F150.79674904357552
sS'via'
p121
F227.95592420641054
sS'secure'
p122
F366.48756028779798
sS'family'
p123
F148.79648231289059
sS'win'
p124
F160.70020089792183
sS'imagine'
p125
F173.17894832421533
sS'private'
p126
F346.57359027997262
sS'put'
p127
F256.75926674538334
sS'unix'
p128
F258.75931081261228
sS'compuserve'
p129
F144.7648790818325
sS'fbi'
p130
F288.10361219155021
sS'tools'
p131
F157.03480800714516
sS'unit'
p132
F218.51433229625704
sS'ulysses'
p133
F305.31794921281312
sS'1993apr22'
p134
F309.47880690243977
sS'use'
p135
F192.93103427618368
sS'1993apr21'
p136
F334.44955241204991
sS'usc'
p137
F268.31501805113095
sS'stream'
p138
F187.80035353779834
sS'usa'
p139
F299.52154989561853
sS'illegal'
p140
F252.31136080781084
sS'contains'
p141
F181.10519819260847
sS'two'
p142
F382.04686413909803
sS'next'
p143
F198.43068927957705
sS'metzger'
p144
F190.06938356179162
sS'approach'
p145
F190.06938356179162
sS'call'
p146
F283.66753698246498
sS'6'
F310.54007215373139
sS'taken'
p147
F221.26456841387008
sS'indiana'
p148
F196.2880592339329
sS'md5'
p149
F172.64328793966146
sS'type'
p150
F215.72061952187585
sS'tell'
p151
F270.32845944990135
sS'today'
p152
F250.03726657842725
sS'sort'
p153
F158.53219735358434
sS'door'
p154
F173.40664771814721
sS'posting'
p155
F313.10776414216383
sS'club'
p156
F338.87172497208689
sS'demon'
p157
F376.73650722487344
sS'company'
p158
F225.31041663022179
sS'line'
p159
F302.52509649979618
sS'distribution'
p160
F365.34512424825255
sS'gtefsd'
p161
F344.39865360583724
sS'phone'
p162
F374.86789573364763
sS'particular'
p163
F197.98797926817903
sS'known'
p164
F259.93019270997945
sS'93'
p165
F365.96581509327956
sS'must'
p166
F327.89495422409112
sS'step'
p167
F169.81307010458505
sS'states'
p168
F165.99123228884216
sS'utexas'
p169
F314.25931085947894
sS'ma'
p170
F187.15541420694143
sS'ibm'
p171
F298.16615297310182
sS'f'
F320.25870888309629
sS'science'
p172
F203.57779606908554
sS'des'
p173
F385.69432212459975
sS'a_rubin'
p174
F192.06950867752397
sS'postings'
p175
F154.69487531814673
sS'obvious'
p176
F152.7480950023608
sS'cam'
p177
F189.67218149795011
sS'mr'
p178
F248.23762843633526
sS'following'
p179
F204.09100303721419
sS'making'
p180
F191.67977024299117
sS'reston'
p181
F338.34673138678573
sS'example'
p182
F283.66753698246498
sS'address'
p183
F246.381523010487
sS'something'
p184
F325.90609664967661
sS'control'
p185
F260.79241495261118
sS'tap'
p186
F233.30443004787546
sS'41'
p187
F150.78208958043621
sS'csus'
p188
F221.26456841387008
sS'give'
p189
F266.29761190037055
sS'process'
p190
F176.67653490212126
sS'programming'
p191
F164.15263443443223
sS'allowed'
p192
F144.7648790818325
sS'agent'
p193
F157.72427125166402
sS'high'
p194
F255.65965268038582
sS'heard'
p195
F190.44542893973917
sS'numbers'
p196
F196.86030457388284
sS'want'
p197
F355.83489673206077
sS'sense'
p198
F178.40213553301729
sS'serial'
p199
F314.86443097540615
sS'david'
p200
F365.15181127349763
sS'uwm'
p201
F251.7644868840099
sS'information'
p202
F340.74898445279575
sS'needs'
p203
F173.68604837457877
sS'nmsu'
p204
F289.85722712381533
sS'end'
p205
F310.07071670498186
sS'knows'
p206
F183.48894254836168
sS'eng'
p207
F366.00773251508457
sS'rather'
p208
F297.10040344985345
sS's2'
p209
F249.72903551757878
sS's1'
p210
F290.16571025241399
sS'means'
p211
F289.10687306881402
sS'att'
p212
F461.59592718370612
sS'write'
p213
F190.06938356179162
sS'trusted'
p214
F148.79648231289059
sS'answer'
p215
F188.44530032402969
sS'instead'
p216
F196.43057682652602
sS'linac'
p217
F154.69487531814673
sS'product'
p218
F252.42503202835672
sS'blocks'
p219
F165.14411156927162
sS'may'
p220
F362.41383541412307
sS'stop'
p221
F167.81288488852957
sS'chinet'
p222
F151.95354667137903
sS'wrong'
p223
F219.89482619422836
sS'produce'
p224
F178.40213553301729
sS'bear'
p225
F215.37178799879007
sS'wiretaps'
p226
F183.48894254836168
sS'court'
p227
F313.80811234082256
sS'law'
p228
F358.91092661421806
sS'data'
p229
F379.75662802779357
sS'concerns'
p230
F146.79088140414555
sS'times'
p231
F160.42342462426487
sS'aukuni'
p232
F162.30694820956683
sS'institute'
p233
F226.6382720270596
sS'clarkson'
p234
F234.18488213672296
sS'effective'
p235
F215.72061952187585
sS'949'
p236
F146.79088140414555
sS'maybe'
p237
F241.58840624607629
sS'sw'
p238
F197.98797926817903
sS'q'
F320.89215670122007
sS'provide'
p239
F257.85075116829961
sS'si'
p240
F272.39100141310803
sS'csrc'
p241
F165.99123228884216
sS'algorithms'
p242
F198.98162327881855
sS'allow'
p243
F183.48894254836168
sS'media'
p244
F175.4735057747379
sS'stewart'
p245
F148.79648231289059
sS'sf'
p246
F194.70059783749005
sS'talk'
p247
F265.69678956209447
sS'excepted'
p248
F148.79648231289059
sS'fbihh'
p249
F296.88304131229773
sS'help'
p250
F224.96708040137287
sS'office'
p251
F160.42342462426487
sS'nixon'
p252
F144.84941211906903
sS'developed'
p253
F203.57779606908554
sS'years'
p254
F291.38045273598135
sS'course'
p255
F295.49680803337526
sS'paper'
p256
F181.80811665817168
sS'including'
p257
F207.06873788931293
sS'clarinet'
p258
F299.47740637565261
sS'still'
p259
F308.22578726067883
sS'ieee'
p260
F346.18529324683993
sS'24'
p261
F275.28972154166559
sS'25'
p262
F267.26892853697865
sS'26'
p263
F269.33855308822149
sS'27'
p264
F235.12659396688022
sS'group'
p265
F273.38959102255831
sS'21'
p266
F375.3093829559383
sS'22'
p267
F372.15937316494291
sS'23'
p268
F352.90765223717477
sS'personal'
p269
F242.80024045086932
sS'c'
F397.41349971120951
sS'll'
p270
F282.76036477226728
sS'jim'
p271
F214.9921747320036
sS'28'
p272
F221.53099599597221
sS'29'
p273
F211.44640641184193
sS'cryptology'
p274
F164.15263443443223
sS'actually'
p275
F258.84674045876045
sS'better'
p276
F267.31875871115301
sS'willing'
p277
F178.40213553301729
sS'systems'
p278
F353.20880893330013
sS'nsa'
p279
F365.91764427401034
sS'policy'
p280
F250.17123709953214
sS'speech'
p281
F229.35266818107689
sS'criminal'
p282
F172.39849542409684
sS'might'
p283
F343.65378680165344
sS'408'
p284
F162.29679930083591
sS'wouldn'
p285
F223.97225284596044
sS'non'
p286
F272.32508638209964
sS'good'
p287
F372.15774354532618
sS'somebody'
p288
F152.88038386360392
sS'conversations'
p289
F225.31041663022179
sS'impossible'
p290
F165.99123228884216
sS'dockmaster'
p291
F160.70020089792183
sS'noc'
p292
F364.72735577078294
sS'break'
p293
F240.14183178109747
sS'das'
p294
F347.08890039122252
sS'curtin'
p295
F174.02532562497996
sS'day'
p296
F178.67669271546023
sS'easily'
p297
F195.85366734088123
sS'name'
p298
F255.43581430447293
sS'always'
p299
F178.40213553301729
sS'university'
p300
F365.87408879456035
sS'classified'
p301
F260.00959225796674
sS'l'
F246.02122103958226
sS'academic'
p302
F175.17911631803386
sS'mode'
p303
F169.01753665770764
sS'andrew'
p304
F364.01665021970922
sS'found'
p305
F185.15527813585751
sS'mean'
p306
F194.86018914176245
sS'domain'
p307
F167.81288488852957
sS'everyone'
p308
F194.12598269609279
sS'another'
p309
F274.25935440455561
sS'initiative'
p310
F185.15527813585751
sS'ee'
p311
F146.76516850905978
sS'list'
p312
F273.34850514824672
sS'hard'
p313
F254.55184234411453
sS'idea'
p314
F287.1068449576851
sS'related'
p315
F186.80733035759181
sS'police'
p316
F299.89317093447414
sS'expect'
p317
F167.81288488852957
sS'escrowed'
p318
F180.11258744500404
sS'anonymity'
p319
F238.14177354879715
sS'80'
p320
F280.41945495569325
sS'summary'
p321
F197.98797926817903
sS'dsg4'
p322
F211.99894593429656
sS'really'
p323
F320.27814457438598
sS'canada'
p324
F158.53219735358434
sS'try'
p325
F255.65965268038582
sS'perry'
p326
F205.58589385152234
sS'network'
p327
F298.67990276192268
sS'house'
p328
F313.20955361742898
sS'electronic'
p329
F287.22955571122435
sS'robert'
p330
F156.62279306248197
sS'since'
p331
F348.18249337355348
sS'research'
p332
F281.84643575389993
sS'looking'
p333
F181.80811665817168
sS'papers'
p334
F161.41460094183134
sS'7'
F255.65965268038582
sS'internet'
p335
F363.58012695810623
sS'mbeckman'
p336
F262.61467090155611
sS'got'
p337
F205.58589385152234
sS'dse'
p338
F211.99894593429656
sS'issue'
p339
F259.85079452760527
sS'smb'
p340
F176.67653490212126
sS'math'
p341
F246.02122103958226
sS'common'
p342
F182.80083501881006
sS'ece'
p343
F356.43875306196509
sS'theory'
p344
F169.61787453015978
sS'written'
p345
F196.43057682652602
sS'ciphers'
p346
F175.92782051983778
sS'given'
p347
F279.12573565746533
sS'free'
p348
F260.00959225796674
sS'20'
p349
F374.48191896675473
sS'reason'
p350
F223.97225284596044
sS'reasons'
p351
F156.62279306248197
sS'carl'
p352
F213.44649449739077
sS'x'
F393.50116330569648
sS'ask'
p353
F223.97225284596044
sS'byte'
p354
F204.09100303721419
sS'hand'
p355
F166.98285226950864
sS'care'
p356
F264.18463082603995
sS'uiuc'
p357
F202.15917105893595
sS'g'
F336.17890958335585
sS'could'
p358
F341.34961598627865
sS'messages'
p359
F268.31501805113095
sS'days'
p360
F182.11273597603267
sS'keep'
p361
F287.97438711855301
sS'conversation'
p362
F197.98797926817903
sS'american'
p363
F266.26509220730912
sS'apple'
p364
F158.15573224980267
sS'place'
p365
F248.88743592538819
sS'isn'
p366
F276.25938841920237
sS'w'
F235.12659396688022
sS'signature'
p367
F155.6855583677908
sS'feds'
p368
F211.44640641184193
sS'scheme'
p369
F289.10687306881402
sS'think'
p370
F376.09447349742851
sS'first'
p371
F354.13127385063001
sS'feed'
p372
F209.53384191180476
sS'rand'
p373
F198.57858045142663
sS'major'
p374
F156.62279306248197
sS'already'
p375
F258.93417150383243
sS'simply'
p376
F205.58589385152234
sS'feel'
p377
F150.78208958043621
sS'misc'
p378
F375.57915631652088
sS'number'
p379
F373.91800503025826
sS'456'
p380
F164.10686373990444
sS'58'
p381
F158.53219735358434
sS'bontchev'
p382
F349.38170458476202
sS'americans'
p383
F221.26456841387008
sS'fast'
p384
F176.67653490212126
sS'pgp'
p385
F361.77773780043208
sS'president'
p386
F269.28410902564593
sS'force'
p387
F185.15527813585751
sS'open'
p388
F205.58589385152234
sS'guess'
p389
F220.88948808208593
sS'management'
p390
F169.61787453015978
sS'interesting'
p391
F181.80811665817168
sS'service'
p392
F285.57134595550167
sS'dove'
p393
F183.48894254836168
sS'digex'
p394
F394.41211776209099
sS'system'
p395
F279.25922860894423
sS'least'
p396
F253.43576800624751
sS'anyone'
p397
F332.54748107165994
sS'needed'
p398
F185.15527813585751
sS'attack'
p399
F270.32740041837866
sS'2'
F355.33121625574506
sS'white'
p400
F294.04249715362556
sS'john'
p401
F274.28610707335088
sS'bits'
p402
F359.64625849204583
sS'discussion'
p403
F191.67977024299117
sS'enforcement'
p404
F364.95060571569326
sS'lot'
p405
F247.38597406863582
sS'behind'
p406
F166.36996024781817
sS'jpl'
p407
F180.40228859970901
sS'nobody'
p408
F164.15263443443223
sS'rsa'
p409
F341.26178388977706
sS'cops'
p410
F168.22448143748062
sS'part'
p411
F326.60517745041034
sS'believe'
p412
F290.98419042640376
sS'haven'
p413
F202.58391856914861
sS'remember'
p414
F178.40213553301729
sS'1993apr17'
p415
F262.80814072084422
sS'1993apr16'
p416
F212.0118418825455
sS'kind'
p417
F234.39467259775984
sS'b'
F296.99419979372175
sS'15'
p418
F319.27459571445462
sS'14'
p419
F293.35037190712035
sS'17'
p420
F358.65675245153955
sS'16'
p421
F359.98694560473086
sS'19'
p422
F370.0816260013537
sS'18'
p423
F339.65832992948646
sS'second'
p424
F279.06364503448367
sS'1993apr19'
p425
F244.25772382967168
sS'1993apr18'
p426
F160.42342462426487
sS'matter'
p427
F223.97225284596044
sS'future'
p428
F208.5396785319335
sS'magnesium'
p429
F338.87172497208689
sS'attorney'
p430
F149.82277618633185
sS'agate'
p431
F225.31041663022179
sS'listen'
p432
F173.17894832421533
sS'result'
p433
F148.79648231289059
sS'function'
p434
F179.39463543907698
sS'georgetown'
p435
F158.15573224980267
sS'wupost'
p436
F247.7289851057138
sS'mind'
p437
F154.69487531814673
sS'say'
p438
F352.72530877251643
sS'compression'
p439
F179.39463543907698
sS'ans'
p440
F338.21289767272907
sS'need'
p441
F367.63312163355408
sS'seen'
p442
F197.98797926817903
sS'seem'
p443
F186.80733035759181
sS'sat'
p444
F212.88246401399977
sS'sell'
p445
F187.80035353779834
sS'screw'
p446
F176.20352913295602
sS'wcs'
p447
F248.07683534174564
sS'xref'
p448
F357.7151106661774
sS'rochester'
p449
F340.74147486582945
sS'mil'
p450
F250.86108243364902
sS'magnus'
p451
F251.62934010362821
sS'agency'
p452
F256.55188788021098
sS'able'
p453
F273.30921994784069
sS'ncsl'
p454
F221.53099599597221
sS'equipment'
p455
F191.06259616186344
sS'contact'
p456
F199.98808885601935
sS'best'
p457
F199.53256290035219
sS'online'
p458
F167.81288488852957
sS'mit'
p459
F394.69479124707306
sS'ncsc'
p460
F209.38366702669967
sS'cl'
p461
F153.81268402444704
sS'begin'
p462
F150.78208958043621
sS'sure'
p463
F326.53486159907385
sS'unless'
p464
F231.55611097622864
sS'sura'
p465
F331.78518172167134
sS'claremont'
p466
F226.52104616268318
sS'harmful'
p467
F154.69487531814673
sS'uunet'
p468
F363.89554826664585
sS'said'
p469
F236.9022031191445
sS'germany'
p470
F160.42342462426487
sS'plan'
p471
F182.80083501881006
sS'letter'
p472
F194.86018914176245
sS'services'
p473
F219.89482619422836
sS'xor'
p474
F148.85245388216723
sS'cryptanalysis'
p475
F162.29679930083591
sS'cellular'
p476
F207.58599063258436
sS'ciphertext'
p477
F188.80746262222723
sS'mizzou1'
p478
F227.39717746949972
sS'especially'
p479
F169.61787453015978
sS'won'
p480
F252.31136080781084
sS'considered'
p481
F208.06283233166118
sS'doc'
p482
F283.06502574653541
sS'clear'
p483
F197.98797926817903
sS'request'
p484
F256.75926674538334
sS'order'
p485
F331.48254175146144
sS'ways'
p486
F154.69487531814673
sS'rwing'
p487
F312.30600629360225
sS'dos'
p488
F156.62279306248197
sS'08'
p489
F149.78661367769953
sS'fact'
p490
F305.49699597813918
sS'laws'
p491
F193.27664540218544
sS'sector'
p492
F146.79088140414555
sS'saying'
p493
F233.57617831360224
sS'09'
p494
F155.6855583677908
sS'encrypted'
p495
F361.66129889437485
sS'random'
p496
F315.15220944631204
sS'cheap'
p497
F221.26456841387008
sS'brother'
p498
F151.7724119591484
sS'session'
p499
F272.33734807394421
sS'radio'
p500
F150.78208958043621
sS'keywords'
p501
F194.86018914176245
sS'netnews'
p502
F160.42342462426487
sS'find'
p503
F344.18324110010019
sS'current'
p504
F198.98162327881855
sS'trying'
p505
F219.89482619422836
sS'based'
p506
F225.31041663022179
sS'nice'
p507
F160.42342462426487
sS'implementation'
p508
F167.81288488852957
sS'writes'
p509
F182.15405247627726
sS'state'
p510
F340.83173666139533
sS'crime'
p511
F204.09100303721419
sS'going'
p512
F333.2608036875331
sS'rick'
p513
F209.29374134558981
sS'pretty'
p514
F226.6382720270596
sS'folks'
p515
F156.62279306248197
sS'8'
F316.88381499272037
sS'darwin'
p516
F219.89482619422836
sS'local'
p517
F217.12296987591182
sS'acns'
p518
F253.43576800624751
sS'hope'
p519
F173.17894832421533
sS'grady'
p520
F150.78208958043621
sS'11'
p521
F281.3881670643716
sS'cryptography'
p522
F373.2315693410402
sS'get'
p523
F341.14310917579087
sS'lots'
p524
F153.73860114083692
sS'de'
p525
F443.83318660408537
sS'db'
p526
F328.2125134148356
sS'13'
p527
F251.17855073273171
sS'strnlght'
p528
F305.49699597813918
sS'cannot'
p529
F222.62367331385857
sS'legitimate'
p530
F194.12598269609279
sS'words'
p531
F161.41460094183134
sS'new'
p532
F365.99138239314817
sS'chips'
p533
F331.40851624980633
sS'holland'
p534
F294.08063420497558
sS'acm'
p535
F338.87172497208689
sS'countries'
p536
F159.52321515623163
sS'h'
F224.00232040669852
sS'method'
p537
F214.30715917001658
sS'skipjack'
p538
F180.11258744500404
sS'bad'
p539
F204.58402018896871
sS'stuff'
p540
F226.30529714643919
sS'source'
p541
F291.84521754468722
sS'release'
p542
F198.98162327881855
sS'ohio'
p543
F523.05914351585875
sS'amanda'
p544
F343.47022462360439
sS'nist'
p545
F342.60901301210527
sS'view'
p546
F156.62279306248197
sS'yuma'
p547
F265.26888968784539
sS'set'
p548
F222.62367331385857
sS'dealers'
p549
F158.53219735358434
sS'national'
p550
F290.83550528181087
sS'59'
p551
F150.78208958043621
sS'see'
p552
F357.23327191890849
sS'computer'
p553
F370.693834782968
sS'zaphod'
p554
F363.35142702589735
sS'pmetzger'
p555
F260.8630450468612
sS'yes'
p556
F218.51433229625704
sS'sei'
p557
F366.87908886388686
sS'02'
p558
F220.13982074174973
sS'03'
p559
F213.44649449739077
sS'00'
p560
F337.87491908956969
sS'01'
p561
F271.3437497570327
sS'06'
p562
F168.80464300560217
sS'07'
p563
F211.99894593429656
sS'04'
p564
F194.86018914176245
sS'05'
p565
F194.70059783749005
sS'federal'
p566
F247.7289851057138
sS'away'
p567
F195.85366734088123
sS'currently'
p568
F159.52321515623163
sS'please'
p569
F294.39000630777883
sS'sites'
p570
F193.27664540218544
sS'3'
F377.15922865083979
sS'r'
F335.53147113559515
sS'various'
p571
F156.62279306248197
sS'finger'
p572
F183.48894254836168
sS'54715'
p573
F148.65687420626955
sS'probably'
p574
F319.50799723055286
sS'reading'
p575
F180.11258744500404
sS'nntp'
p576
F351.0391703320692
sS'email'
p577
F297.69519898162088
sS'involved'
p578
F164.15263443443223
sS'available'
p579
F366.02480590038635
sS'gives'
p580
F150.78208958043621
sS'infrastructure'
p581
F148.79648231289059
sS'europa'
p582
F344.39865360583724
sS'ability'
p583
F177.66892059062249
sS'comp'
p584
F506.04408397823391
sS'agencies'
p585
F333.10810117855061
sS'however'
p586
F297.89314702967266
sS'harvard'
p587
F366.6263075077614
sS'article'
p588
F273.82467757073778
sS'come'
p589
F218.51433229625704
sS'tue'
p590
F262.07316045049032
sS'monitor'
p591
F148.79648231289059
sS'denning'
p592
F282.17923245675667
sS'restrictions'
p593
F148.79648231289059
sS'protect'
p594
F308.22578726067883
sS'sternlight'
p595
F331.54516982084397
sS'many'
p596
F361.59313500539474
sS'ellisun'
p597
F154.69487531814673
sS'beckman'
p598
F315.20853071994213
sS'drug'
p599
F280.13634057036757
sS'agree'
p600
F169.61787453015978
sS'etc'
p601
F317.11852569435393
sS'anon'
p602
F151.7724119591484
sS'brad'
p603
F337.27212158770112
sS'uni'
p604
F349.27858330249194
sS'whole'
p605
F219.89482619422836
sS'asked'
p606
F208.60440831770495
sS'comes'
p607
F193.27664540218544
sS'otherwise'
p608
F165.99123228884216
sS'suggest'
p609
F144.7648790818325
sS'suspect'
p610
F174.935552581536
sS'ch'
p611
F170.06181170657229
sS'co'
p612
F380.1186268265518
sS'hackers'
p613
F146.79088140414555
sS'point'
p614
F330.05198139087111
sS'cc'
p615
F380.4738706736984
sS'bellovin'
p616
F154.69487531814673
sS'ca'
p617
F392.43535524577538
sS'others'
p618
F247.55747868699115
sS'cryptosystem'
p619
F173.17894832421533
sS'whatever'
p620
F188.44530032402969
sS'purpose'
p621
F170.06181170657229
sS'inet'
p622
F167.81288488852957
sS'agents'
p623
F204.09100303721419
sS'250'
p624
F185.15527813585751
sS'trust'
p625
F311.83208156642377
sS'linus'
p626
F160.32864272323587
sS'telecommunications'
p627
F154.69487531814673
sS'conference'
p628
F153.73860114083692
sS'marc'
p629
F306.52297716536748
sS'fri'
p630
F250.03726657842725
sS'political'
p631
F190.06938356179162
sS'three'
p632
F194.86018914176245
sS'plaintext'
p633
F248.56189047075679
sS'secret'
p634
F368.91665457703124
sS'much'
p635
F354.21067228877439
sS'interest'
p636
F175.92782051983778
sS'basic'
p637
F144.7648790818325
sS'proposal'
p638
F284.77400127652248
sS'followup'
p639
F186.80733035759181
sS'mike'
p640
F151.95354667137903
sS'powerful'
p641
F148.79648231289059
sS'designed'
p642
F181.80811665817168
sS'informatik'
p643
F269.33855308822149
sS'netcom'
p644
F280.39268245419493
sS'else'
p645
F241.58840624607629
sS'38'
p646
F163.28812863541245
sS'understand'
p647
F180.11258744500404
sS'hamburg'
p648
F333.18176567209616
sS'last'
p649
F239.37199884932329
sS'thing'
p650
F286.34896323665083
sS'general'
p651
F312.79425933208501
sS'standard'
p652
F322.75671326503971
sS'case'
p653
F330.5042961760779
sS'look'
p654
F222.62367331385857
sS'bill'
p655
F308.32049049614631
sS'single'
p656
F191.67977024299117
sS'ripem'
p657
F324.09690290937414
sS'n'
F489.01610283133488
sS'shockwave'
p658
F147.79746635966603
sS'qualcomm'
p659
F304.45144058260308
sS'near'
p660
F364.86017818967446
sS'suppose'
p661
F185.15527813585751
sS'policies'
p662
F165.99123228884216
sS'country'
p663
F171.40647426061747
sS'voice'
p664
F306.76259769031765
sS'bb3'
p665
F291.38045273598135
sS'31'
p666
F166.98285226950864
sS'va'
p667
F167.81288488852957
sS'anchor'
p668
F150.78208958043621
sS've'
p669
F324.09897492645837
sS'decryption'
p670
F165.99123228884216
sS'almost'
p671
F186.80733035759181
sS'thus'
p672
F205.58589385152234
sS'telephone'
p673
F237.74171712554124
sS'hardware'
p674
F248.88743592538819
sS'someone'
p675
F331.31582904825279
sS'experts'
p676
F190.06938356179162
sS'il'
p677
F166.65206019043745
sS'technology'
p678
F368.77280303673575
sS'shearson'
p679
F285.90186536216777
sS'cpsr'
p680
F182.46495647097987
sS'different'
p681
F231.55611097622864
sS'pat'
p682
F357.65102289397691
sS'april'
p683
F150.78208958043621
sS'perhaps'
p684
F245.38592185640351
sS'things'
p685
F317.85251537961739
sS'make'
p686
F364.86017818967446
sS'administration'
p687
F324.09897492645837
sS'myrto'
p688
F162.29679930083591
sS'check'
p689
F151.7724119591484
sS'1'
F206.79742384721041
sS'authentication'
p690
F152.7480950023608
sS'parts'
p691
F212.74080295462224
sS'pad'
p692
F221.91284827394483
sS'9'
F244.96965155026922
sS'several'
p693
F242.38614796596755
sS'tapped'
p694
F278.06710126486502
sS'couple'
p695
F148.79648231289059
sS'difficult'
p696
F160.42342462426487
sS'development'
p697
F189.43841951755789
sS'independent'
p698
F186.80733035759181
sS'used'
p699
F370.98248492683382
sS'columbia'
p700
F161.56048509865084
sS'keys'
p701
F314.66868931928127
sS'rfc'
p702
F152.88038386360392
sS'rain'
p703
F178.5557787754687
sS'possible'
p704
F300.23559282151115
sS'running'
p705
F150.78208958043621
sS'uses'
p706
F216.71510477866846
sS'user'
p707
F286.46511771776807
sS'military'
p708
F148.79648231289059
sS'build'
p709
F183.48894254836168
sS'kept'
p710
F145.75460486756381
sS'center'
p711
F197.98797926817903
sS'thu'
p712
F227.95592420641054
sS'well'
p713
F374.7212437187203
sS'anybody'
p714
F148.79648231289059
sS'analysis'
p715
F167.81288488852957
sS'crabapple'
p716
F361.71951264199259
sS'thought'
p717
F209.99885578816958
sS'person'
p718
F293.04558994371024
sS'without'
p719
F349.24106663145534
sS'corporation'
p720
F181.80811665817168
sS'y'
F161.67436869563721
sS'traffic'
p721
F245.6636472418829
sS'33'
p722
F156.62279306248197
sS'mon'
p723
F267.31875871115301
sS'opinions'
p724
F246.54050629536954
sS'protocol'
p725
F156.62279306248197
sS'proposed'
p726
F194.86018914176245
sS'less'
p727
F253.3071825186023
sS'money'
p728
F197.98797926817903
sS'obtain'
p729
F162.29679930083591
sS'thanks'
p730
F167.81288488852957
sS'questions'
p731
F204.09100303721419
sS'using'
p732
F362.790463267002
sS'paul'
p733
F216.30724334084979
sS'omissions'
p734
F152.7480950023608
sS'yet'
p735
F289.69015861496172
sS'caronni'
p736
F161.30166327671915
sS'announcement'
p737
F274.25935440455561
sS'0400'
p738
F191.67977024299117
sS'hal'
p739
F174.35471133843228
sS'tin'
p740
F152.7480950023608
sS'wed'
p741
F236.9022031191445
sS'stratus'
p742
F326.34263967890411
sS'bell'
p743
F181.10519819260847
sS'seems'
p744
F283.57131632508191
sS'except'
p745
F165.99123228884216
sS'simple'
p746
F207.06873788931293
sS'interested'
p747
F162.29679930083591
sS'4'
F363.70988495098453
sS'easy'
p748
F245.19671766094876
sS'crack'
p749
F151.7724119591484
sS'mitre'
p750
F244.64104594037474
sS'warrant'
p751
F233.12653112359874
sS'take'
p752
F322.09895858795062
sS'real'
p753
F310.37851548463874
sS'northeastern'
p754
F174.02532562497996
sS'around'
p755
F225.31041663022179
sS'government'
p756
F146.52292555831838
sS'read'
p757
F339.32201637978386
sS'big'
p758
F273.30921994784069
sS'intercon'
p759
F342.73354864343577
sS'digital'
p760
F263.18848687992556
sS'mov'
p761
F271.32871835401573
sS'test'
p762
F185.15527813585751
sS'snark'
p763
F211.99894593429656
sS'know'
p764
F365.84077691658564
sS'secrecy'
p765
F146.79088140414555
sS'press'
p766
F176.67653490212126
sS'world'
p767
F331.09392938725296
sS'bit'
p768
F390.87188525796358
sS'password'
p769
F150.78208958043621
sS'd'
F382.09323519152269
sS'necessary'
p770
F173.40664771814721
sS'like'
p771
F341.30703005837699
sS'55'
p772
F172.39849542409684
sS'54'
p773
F193.27664540218544
sS'57'
p774
F146.79088140414555
sS'56'
p775
F173.40664771814721
sS'51'
p776
F145.75460486756381
sS'50'
p777
F219.50893657784491
sS'53'
p778
F152.78234595125355
sS'server'
p779
F217.72070183249974
sS'specific'
p780
F151.7724119591484
sS'communications'
p781
F358.49558030024741
sS'arthur'
p782
F152.7480950023608
sS'individuals'
p783
F146.79088140414555
sS'either'
p784
F280.84982176704926
sS'completely'
p785
F148.79648231289059
sS'64'
p786
F207.58599063258436
sS'accuracy'
p787
F166.98285226950864
sS'amendment'
p788
F245.84190889722541
sS'laissez'
p789
F182.48293704803277
sS'right'
p790
F374.83310705063781
sS'old'
p791
F183.1356566087955
sS'people'
p792
F256.64957630556705
sS'back'
p793
F298.89016491641883
sS'pacific'
p794
F167.81288488852957
sS'crypto'
p795
F370.88999791930439
sS'pizzabox'
p796
F186.80733035759181
sS'manufacturers'
p797
F164.15263443443223
sS'202'
p798
F169.76016540995698
sS'udel'
p799
F337.14491168555389
sS'convex'
p800
F167.17940811832531
sS'peter'
p801
F181.59142605956023
sS'tcmayc5m2xv'
p802
F162.29679930083591
sS'ucsu'
p803
F149.82277618633185
sS'decision'
p804
F150.78208958043621
sS'though'
p805
F262.1366879514195
sS'comments'
p806
F231.84868165675513
sS'umd'
p807
F213.21782382726971
sS'machine'
p808
F264.13672864301384
sS'market'
p809
F199.98808885601935
sS'provides'
p810
F167.81288488852957
sS'run'
p811
F263.18848687992556
sS'business'
p812
F227.95592420641054
sS'bl'
p813
F144.7648790818325
sS'bh'
p814
F252.31136080781084
sS'1993apr20'
p815
F311.41849518237649
sS'bu'
p816
F243.91363777618281
sS'host'
p817
F356.52306812680308
sS'criminals'
p818
F233.8487457383695
sS'great'
p819
F250.03726657842725
sS'output'
p820
F173.68604837457877
sS'1993apr26'
p821
F183.1356566087955
sS'post'
p822
F194.86018914176245
sS'includes'
p823
F146.79088140414555
sS'dcs'
p824
F185.48908259261609
sS'takes'
p825
F174.17109481320807
sS'patent'
p826
F177.66892059062249
sS'working'
p827
F207.06873788931293
sS'anything'
p828
F273.32875387471364
sS'getting'
p829
F171.40647426061747
sS'attacks'
p830
F197.4241389988909
sS'freedom'
p831
F204.09100303721419
sS'industry'
p832
F221.26456841387008
sS'citizens'
p833
F236.64846752658445
sS'year'
p834
F158.53219735358434
sS'o'
F248.14053700104208
sS'acs'
p835
F288.62229859107009
sS'cipher'
p836
F275.35842062727789
sS'ensure'
p837
F238.14177354879715
sS'done'
p838
F234.39467259775984
sS'act'
p839
F191.67977024299117
sS'block'
p840
F315.63688360251518
sS'software'
p841
F315.87821675276348
sS'clinton'
p842
F339.1318726999761
sS'colorado'
p843
F253.08796545154448
sS'terrorists'
p844
F167.81288488852957
sS'civil'
p845
F198.98162327881855
sS'communication'
p846
F212.88246401399977
sS'within'
p847
F169.61787453015978
sS'washington'
p848
F187.15541420694143
sS'sol'
p849
F196.43057682652602
sS'arms'
p850
F194.86018914176245
sS'nothing'
p851
F223.61844680125168
sS'appropriate'
p852
F150.78208958043621
sS'per'
p853
F216.30724334084979
sS'devices'
p854
F275.50595848007771
sS'pc'
p855
F180.40228859970901
sS'aren'
p856
F165.14411156927162
sS'transfer'
p857
F227.63320443053337
sS'howland'
p858
F339.57614763780049
sS'support'
p859
F210.67951640075461
sS'question'
p860
F291.5353188609169
sS'long'
p861
F298.30166044105988
sS'approved'
p862
F164.15263443443223
sS'start'
p863
F224.96708040137287
sS'newsreader'
p864
F211.44640641184193
sS'doubt'
p865
F165.99123228884216
sS'way'
p866
F361.54023727462868
sS'ed'
p867
F238.20144917129736
sS'optilink'
p868
F203.39398479147869
sS'0705'
p869
F146.79088140414555
sS'war'
p870
F158.53219735358434
sS'wrote'
p871
F178.40213553301729
sS'files'
p872
F243.60698245270518
sS'ago'
p873
F181.80811665817168
sS'buy'
p874
F219.50893657784491
sS'form'
p875
F178.67669271546023
sS'enough'
p876
F297.69519898162088
sS'dns1'
p877
F213.87682487634586
sS'hp'
p878
F247.30269585074797
sS'escrow'
p879
F351.05033753146222
sS'sdd'
p880
F174.935552581536
sS'gatech'
p881
F307.94613569230739
sS'ho'
p882
F169.61787453015978
sS'rdippold'
p883
F214.46404995678839
sS'qualcom'
p884
F249.27716033638984
sS'true'
p885
F221.26456841387008
sS'posted'
p886
F214.30715917001658
sS'info'
p887
F160.42342462426487
sS'also'
p888
F366.33477056819186
sS'rush'
p889
F151.65451885154397
sS'made'
p890
F258.84674045876045
sS'algorithm'
p891
F372.00805748424807
sS'happen'
p892
F148.79648231289059
sS'stanford'
p893
F152.1641117135409
sS'whether'
p894
F258.93417150383243
sS'wish'
p895
F152.7480950023608
sS'j'
F315.08668358819443
sS'us'
p896
F355.24475602946887
sS'cis'
p897
F365.24275464824581
sS'record'
p898
F173.17894832421533
sS'note'
p899
F272.31282572749944
sS'agora'
p900
F185.62701399997863
sS'uk'
p901
F369.22048645451196
sS'site'
p902
F186.80733035759181
sS'export'
p903
F259.93019270997945
sS'problem'
p904
F249.72903551757878
sS'z'
F157.6136465505646
sS'similar'
p905
F171.40647426061747
sS'called'
p906
F244.00298362134814
sS'cryptosystems'
p907
F162.29679930083591
sS'ac'
p908
F398.28834302613592
sS'v'
F203.39398479147869
sS'hellman'
p909
F169.81307010458505
sS'computing'
p910
F167.81288488852957
sS'certain'
p911
F193.67989199969719
sS'jex'
p912
F162.29679930083591
sS'decrypt'
p913
F193.27664540218544
sS'al'
p914
F218.35331046284801
sS'doesn'
p915
F308.37849513486685
sS'evidence'
p916
F189.43841951755789
sS'engineering'
p917
F209.99885578816958
sS'au'
p918
F310.65477578831212
sS'cbnewsh'
p919
F204.67212408797994
sS'file'
p920
F331.09637018710146
sS'graham'
p921
F194.86018914176245
sS'archive'
p922
F169.61787453015978
sS'inc'
p923
F291.38045273598135
sS'uucp'
p924
F320.36730251520339
sS'encrypt'
p925
F186.14820258529446
sS'48'
p926
F176.67653490212126
sS'49'
p927
F240.70186157661479
sS'46'
p928
F146.76516850905978
sS'na'
p929
F313.20955361742898
sS'44'
p930
F168.80464300560217
sS'42'
p931
F156.62279306248197
sS'43'
p932
F150.78208958043621
sS'40'
p933
F282.5311888882843
sS'tis'
p934
F217.21266341050998
sS'power'
p935
F174.17109481320807
sS'field'
p936
F192.67307374756959
sS'nz'
p937
F232.18200746715834
sS'caltech'
p938
F212.40190756655778
sS'5'
F317.18027470580569
sS'details'
p939
F241.80475854367833
sS'fs7'
p940
F340.20985145862699
sS'department'
p941
F219.50893657784491
sS'10'
p942
F359.25422348970716
sS'toal'
p943
F191.67977024299117
sS'users'
p944
F283.57131632508191
sS'congress'
p945
F207.06873788931293
sS'ftp'
p946
F312.90275527439519
sS'missouri'
p947
F269.28410902564593
sS'problems'
p948
F148.79648231289059
sS'm'
F353.20336473235346
sS'kadie'
p949
F190.20513964192614
sS'directory'
p950
F163.28812863541245
sS'important'
p951
F207.06873788931293
sS'individual'
p952
F159.52321515623163
sS'tcmay'
p953
F156.62279306248197
sS'mykotronx'
p954
F146.79088140414555
sS'cryptographic'
p955
F228.95090745590716
sS'e'
F394.48034538251812
sS'longer'
p956
F146.79088140414555
sS'calls'
p957
F212.88246401399977
sS'assume'
p958
F231.26354288475471
sS'values'
p959
F145.82394039214336
sS'required'
p960
F173.17894832421533
sS'quite'
p961
F229.26347621408775
sS'nasa'
p962
F294.74116142851233
sS'u'
F389.48400818900939
sS'rainier'
p963
F167.81288488852957
sS'time'
p964
F376.25094885267799
sS'walker'
p965
F216.30724334084979
sS'serious'
p966
F180.11258744500404
sS'12'
p967
F256.75926674538334
sS'develop'
p968
F167.81288488852957
s.