(dp1
S''
F583.2610751196886
sS'neighbors'
p2
F243.00746125326174
sS'consider'
p3
F234.39467259775984
sS'lack'
p4
F201.39521503683252
sS'resistance'
p5
F208.60440831770495
sS'four'
p6
F227.31048748888716
sS'edt'
p7
F263.18848687992556
sS'go'
p8
F367.38352876774314
sS'alt'
p9
F423.13998959426146
sS'religious'
p10
F338.07959962216745
sS'children'
p11
F371.89022203697857
sS'whose'
p12
F236.9022031191445
sS'certainly'
p13
F205.58589385152234
sS'apartment'
p14
F292.53849683414501
sS'peter'
p15
F181.80811665817168
sS'religion'
p16
F326.75146157696241
sS'father'
p17
F287.47515492853836
sS'young'
p18
F234.39467259775984
sS'send'
p19
F197.4241389988909
sS'elias'
p20
F216.53557639314189
sS'late'
p21
F186.80733035759181
sS'colostate'
p22
F237.41849256497602
sS'suffered'
p23
F194.86018914176245
sS'must'
p24
F358.49558030024741
sS'sent'
p25
F237.89751559622741
sS'brown'
p26
F339.045969789163
sS'woman'
p27
F224.64993875013488
sS'outside'
p28
F209.06883237958527
sS'far'
p29
F298.89016491641883
sS'azerbaijanis'
p30
F233.12653112359874
sS'utexas'
p31
F351.2856136346694
sS'anyway'
p32
F188.44530032402969
sS'ankara'
p33
F241.37205600818496
sS'every'
p34
F301.7677537313096
sS'mps'
p35
F405.20897404559366
sS'ma'
p36
F252.31136080781084
sS'governments'
p37
F191.67977024299117
sS'entire'
p38
F244.20115555021721
sS'school'
p39
F238.66776052901264
sS'bosna'
p40
F292.21614623962785
sS'called'
p41
F349.00891332595273
sS'cause'
p42
F219.50893657784491
sS'list'
p43
F185.15527813585751
sS'solution'
p44
F249.4220651904385
sS'urartu'
p45
F369.39141931415128
sS'leave'
p46
F291.43304921491693
sS'p'
F366.16790491450178
sS'race'
p47
F239.13712956366473
sS'jhu'
p48
F180.69488265982983
sS'saudi'
p49
F235.38783873815964
sS'azeris'
p50
F269.32867419018424
sS'yale'
p51
F265.967050254578
sS'small'
p52
F270.33731202894563
sS'guy'
p53
F200.52628669469414
sS'714'
p54
F213.87682487634586
sS'says'
p55
F354.31162529136441
sS'leaders'
p56
F262.1366879514195
sS'ten'
p57
F257.6596974730183
sS'baku'
p58
F283.76375844610334
sS'past'
p59
F238.14177354879715
sS'talks'
p60
F211.99894593429656
sS'second'
p61
F297.29861783845683
sS'ottoman'
p62
F328.29429770178092
sS'attacked'
p63
F204.09100303721419
sS'even'
p64
F306.53787784650069
sS'business'
p65
F218.51433229625704
sS'clock'
p66
F296.49377158990194
sS'cyprus'
p67
F258.93417150383243
sS'sides'
p68
F240.14183178109747
sS'48'
p69
F178.40213553301729
sS'melkonian'
p70
F271.32871835401573
sS'current'
p71
F209.63547747758523
sS'karabagh'
p72
F213.01670929193881
sS'tartars'
p73
F201.06448994477586
sS'indian'
p74
F251.17855073273171
sS'usenet'
p75
F384.06252382147471
sS'goes'
p76
F182.11273597603267
sS'bm'
p77
F183.48894254836168
sS'reply'
p78
F363.75839843351093
sS'net'
p79
F270.71108493480887
sS'ground'
p80
F209.99885578816958
sS'ever'
p81
F238.14177354879715
sS'public'
p82
F310.37851548463874
sS'nazis'
p83
F288.62229859107009
sS'movement'
p84
F228.63834144691793
sS'body'
p85
F199.96277615742224
sS'full'
p86
F250.03726657842725
sS'iran'
p87
F308.32049049614631
sS'henrik'
p88
F275.22187921470356
sS'1948'
p89
F180.11258744500404
sS'french'
p90
F190.44542893973917
sS'water'
p91
F185.48908259261609
sS'reported'
p92
F216.71510477866846
sS'let'
p93
F373.00028870447505
sS'egypt'
p94
F207.67993842740469
sS'groups'
p95
F266.23257370066045
sS'civilians'
p96
F318.5628658042346
sS'100'
p97
F181.10519819260847
sS'iraq'
p98
F234.34070875143007
sS'b'
F306.04921078268035
sS'half'
p99
F193.67989199969719
sS'change'
p100
F204.09100303721419
sS'box'
p101
F185.15527813585751
sS'great'
p102
F284.46508847851493
sS'dec'
p103
F185.64675463402588
sS'daughter'
p104
F215.30158292324975
sS'sender'
p105
F314.02862991161714
sS'ctr'
p106
F195.7355797436208
sS'institute'
p107
F209.06883237958527
sS'involved'
p108
F226.6382720270596
sS'31'
p109
F223.61844680125168
sS'30'
p110
F308.37849513486685
sS'freenet'
p111
F338.19967757626642
sS'murdered'
p112
F202.58391856914861
sS'reports'
p113
F230.56102903548447
sS'34'
p114
F191.06259616186344
sS'arens'
p115
F229.35495254392671
sS'dro'
p116
F178.40213553301729
sS'published'
p117
F275.22187921470356
sS'action'
p118
F250.88748547179091
sS'military'
p119
F333.59398734627752
sS'studies'
p120
F258.93417150383243
sS'psinntp'
p121
F287.90254216171206
sS'invasion'
p122
F186.80733035759181
sS'family'
p123
F250.03726657842725
sS'tclock'
p124
F254.55184234411453
sS'45'
p125
F201.06448994477586
sS'bullock'
p126
F256.44847854197667
sS'brought'
p127
F262.07316045049032
sS'put'
p128
F324.50454130578657
sS'names'
p129
F194.86018914176245
sS'apc'
p130
F411.98408172416015
sS'employer'
p131
F194.86018914176245
sS'armed'
p132
F209.99885578816958
sS'benali'
p133
F185.07529744832166
sS'standing'
p134
F206.09110219339524
sS'use'
p135
F297.49683282076143
sS'wanted'
p136
F243.00746125326174
sS'usc'
p137
F328.40172148391673
sS'troops'
p138
F341.42365345126007
sS'usa'
p139
F280.49299789777604
sS'army'
p140
F348.15532127452832
sS'stated'
p141
F215.72061952187585
sS'mcrcim'
p142
F343.01573035488616
sS'next'
p143
F241.80475854367833
sS'territories'
p144
F277.12570305507751
sS'live'
p145
F323.32852858227193
sS'call'
p146
F297.10040344985345
sS'therefore'
p147
F193.27664540218544
sS'6'
F317.5148513250403
sS'taken'
p148
F279.99812280142658
sS'care'
p149
F199.53256290035219
sS'tell'
p150
F327.55776457007556
sS'today'
p151
F366.61567128537928
sS'door'
p152
F292.07774545632299
sS'posting'
p153
F353.5712377690362
sS'started'
p154
F353.94293092804099
sS'problem'
p155
F309.37574283665236
sS'gtefsd'
p156
F346.71651602679088
sS'expansion'
p157
F201.06448994477586
sS'israelis'
p158
F340.20986542814984
sS'known'
p159
F204.09100303721419
sS'93'
p160
F345.26673480449432
sS'given'
p161
F285.35223835363462
sS'women'
p162
F349.08891072467264
sS'town'
p163
F280.06713341600107
sS'organizations'
p164
F207.06873788931293
sS'none'
p165
F240.59296553767962
sS'1992'
p166
F232.84381150118236
sS'word'
p167
F247.7289851057138
sS'room'
p168
F213.01670929193881
sS'rights'
p169
F335.42745607406795
sS'science'
p170
F233.12653112359874
sS'work'
p171
F365.39967462263002
sS'soul'
p172
F277.12570305507751
sS'london'
p173
F244.20115555021721
sS'paragraph'
p174
F250.31176178626589
sS'mr'
p175
F333.63235764934268
sS'following'
p176
F298.30166044105988
sS'making'
p177
F202.58391856914861
sS'reston'
p178
F332.12432914943736
sS'example'
p179
F266.20029683553736
sS'history'
p180
F305.53630713838777
sS'control'
p181
F258.93417150383243
sS'claim'
p182
F293.35037190712035
sS'months'
p183
F187.80035353779834
sS'want'
p184
F376.94529233734778
sS'give'
p185
F327.2966599094363
sS'cwru'
p186
F325.92812395032394
sS'sense'
p187
F181.80811665817168
sS'turkiye'
p188
F190.44542893973917
sS'accept'
p189
F212.44070294849712
sS'states'
p190
F343.77060206090601
sS'heard'
p191
F306.4941817142705
sS'orion'
p192
F291.38045273598135
sS'something'
p193
F353.60444465835462
sS'council'
p194
F233.8487457383695
sS'allowed'
p195
F185.15527813585751
sS'standard'
p196
F191.67977024299117
sS'david'
p197
F311.85627915572439
sS'information'
p198
F330.48020893371199
sS'cso'
p199
F472.16297598378435
sS'united'
p200
F307.94613569230739
sS'end'
p201
F286.34896323665083
sS'knows'
p202
F192.06950867752397
sS'eng'
p203
F372.92603878056104
sS'rather'
p204
F248.88743592538819
sS'discussion'
p205
F188.44530032402969
sS'means'
p206
F259.85079452760527
sS'american'
p207
F377.86028544963381
sS'1'
F321.43693647231657
sS'ucla'
p208
F177.39069362404257
sS'answer'
p209
F263.18848687992556
sS'instead'
p210
F205.58589385152234
sS'de'
p211
F285.91655418113612
sS'minority'
p212
F239.13712956366473
sS'may'
p213
F257.7796935141871
sS'memorial'
p214
F181.42556491108272
sS'islamic'
p215
F260.00959225796674
sS'wrong'
p216
F267.31875871115301
sS'blood'
p217
F247.55747868699115
sS'men'
p218
F335.62234727498628
sS'ethnic'
p219
F286.58145078270331
sS'account'
p220
F212.44070294849712
sS'president'
p221
F317.14260976116771
sS'law'
p222
F353.98218857619406
sS'man'
p223
F314.82761358487295
sS'1993apr26'
p224
F199.98808885601935
sS'attempt'
p225
F234.39467259775984
sS'remember'
p226
F290.11671275292252
sS'third'
p227
F291.5353188609169
sS'maybe'
p228
F295.76833702733012
sS'author'
p229
F178.40213553301729
sS'lost'
p230
F185.15527813585751
sS'inhabitants'
p231
F241.80475854367833
sS'ones'
p232
F211.99894593429656
sS'mcgill'
p233
F413.87792954330143
sS'african'
p234
F250.03726657842725
sS'order'
p235
F273.28968703582376
sS'se'
p236
F253.03650134827114
sS'acts'
p237
F183.80826085219962
sS'help'
p238
F320.52112291657863
sS'office'
p239
F230.56102903548447
sS'regional'
p240
F226.6382720270596
sS'azerbaijan'
p241
F370.73878928624691
sS'years'
p242
F358.64692474427295
sS'course'
p243
F313.87819808929203
sS'including'
p244
F276.17731211855664
sS'committee'
p245
F262.07316045049032
sS'committed'
p246
F219.89482619422836
sS'existence'
p247
F182.80083501881006
sS'clarinet'
p248
F199.48031627460082
sS'still'
p249
F365.07320376265437
sS'islam'
p250
F271.36301173601635
sS'24'
p251
F276.25938841920237
sS'25'
p252
F301.12484297711222
sS'26'
p253
F313.0172963784018
sS'27'
p254
F322.4327576551413
sS'police'
p255
F321.5395949370415
sS'21'
p256
F351.68101643048249
sS'22'
p257
F348.5209605933598
sS'23'
p258
F318.5628658042346
sS'greeks'
p259
F299.89317093447414
sS'll'
p260
F397.38306185288911
sS'28'
p261
F247.7289851057138
sS'29'
p262
F235.65319941135735
sS'haverford'
p263
F179.82616981247929
sS'actually'
p264
F278.12222276727886
sS'destroyed'
p265
F222.62367331385857
sS'appressian'
p266
F280.84982176704926
sS'policy'
p267
F366.3879214500385
sS'mail'
p268
F253.43576800624751
sS'might'
p269
F372.91192078645133
sS'happened'
p270
F303.27665908020043
sS'wouldn'
p271
F253.43576800624751
sS'non'
p272
F336.62457610359689
sS'someone'
p273
F316.84694439036309
sS'return'
p274
F276.21834979315963
sS'university'
p275
F212.58256612997911
sS'civilian'
p276
F192.50271175571118
sS'guess'
p277
F180.11258744500404
sS'hate'
p278
F232.56109439239864
sS'nation'
p279
F269.2999769731901
sS'herzgvna'
p280
F291.38045273598135
sS'das'
p281
F352.11476767984192
sS'front'
p282
F218.51433229625704
sS'son'
p283
F256.75926674538334
sS'killed'
p284
F366.53814766092682
sS'bank'
p285
F222.62367331385857
sS'vm1'
p286
F178.40213553301729
sS'bony'
p287
F367.10571210252454
sS'name'
p288
F329.93477204899057
sS'bosnia'
p289
F314.87556188135147
sS'irgun'
p290
F182.80083501881006
sS'always'
p291
F265.18852694306509
sS'times'
p292
F337.55362007298851
sS'didn'
p293
F379.00279809689016
sS'l'
F232.84381150118236
sS'kpc'
p294
F291.20347907262607
sS'truth'
p295
F241.58840624607629
sS'die'
p296
F206.09110219339524
sS'found'
p297
F304.76257616786222
sS'went'
p298
F368.21201203610889
sS'side'
p299
F309.23428854202939
sS'mean'
p300
F271.33365348146754
sS'border'
p301
F253.43576800624751
sS'r'
F177.66892059062249
sS'everyone'
p302
F271.33858966921548
sS'perlman'
p303
F206.2650800163245
sS'ee'
p304
F231.97548023111756
sS'ed'
p305
F346.73525077221859
sS'hard'
p306
F201.06448994477586
sS'sahak'
p307
F271.32871835401573
sS'group'
p308
F352.25288607331646
sS'society'
p309
F271.34937019403179
sS'books'
p310
F198.98162327881855
sS'year'
p311
F342.67751508441518
sS'happen'
p312
F218.11751529434113
sS'tried'
p313
F256.55188788021098
sS'living'
p314
F268.31501805113095
sS'eggertj'
p315
F216.88842972708954
sS'balcony'
p316
F180.74035810590797
sS'network'
p317
F244.20115555021721
sS'god'
p318
F262.75837650110464
sS'occupied'
p319
F338.41716012449348
sS'since'
p320
F359.90760042317589
sS'activities'
p321
F181.80811665817168
sS'research'
p322
F341.93503023093359
sS'7'
F237.89751559622741
sS'got'
p323
F303.17425172361391
sS'gov'
p324
F190.86557774022816
sS'issue'
p325
F270.32845944990135
sS'independence'
p326
F216.71510477866846
sS'exactly'
p327
F204.09100303721419
sS'ece'
p328
F352.21066307563206
sS'city'
p329
F328.17539464969116
sS'million'
p330
F348.00954545210516
sS'story'
p331
F230.56102903548447
sS'free'
p332
F275.39365646982424
sS'quite'
p333
F222.62367331385857
sS'sura'
p334
F334.45943746421864
sS'reason'
p335
F273.32875387471364
sS'california'
p336
F284.0543313475755
sS'york'
p337
F329.29667488384501
sS'members'
p338
F312.53559012045912
sS'x'
F351.24107649347582
sS'ask'
p339
F254.55184234411453
sS'org'
p340
F254.60099257531746
sS'hand'
p341
F250.59765885435752
sS'jew'
p342
F296.80464442025243
sS'uiuc'
p343
F484.9828710044531
sS'couldn'
p344
F274.39532403043307
sS'g'
F188.44530032402969
sS'could'
p345
F338.27591924730405
sS'spam'
p346
F201.76825117728916
sS'maths'
p347
F195.12976298644685
sS'days'
p348
F268.31501805113095
sS'british'
p349
F279.92911306169651
sS'keep'
p350
F288.75335493151437
sS'thing'
p351
F256.75926674538334
sS'att'
p352
F247.39410611479735
sS'place'
p353
F320.78769256506405
sS'isn'
p354
F206.09110219339524
sS'alcor'
p355
F201.61856803545228
sS'syria'
p356
F230.97138574739668
sS'think'
p357
F290.89249162148985
sS'south'
p358
F204.09100303721419
sS'first'
p359
F324.22803579208852
sS'major'
p360
F204.09100303721419
sS'already'
p361
F279.00155530470113
sS'feel'
p362
F254.31140788746018
sS'coming'
p363
F210.99308651466214
sS'misc'
p364
F483.46411005279845
sS'number'
p365
F331.95016692236669
sS'clear'
p366
F218.51433229625704
sS'done'
p367
F254.43162434401091
sS'another'
p368
F353.8957743159458
sS'wasn'
p369
F192.67307374756959
sS'force'
p370
F262.1366879514195
sS'open'
p371
F267.22006499195504
sS'george'
p372
F194.86018914176245
sS'ohanus'
p373
F282.67087774799631
sS'passes'
p374
F281.76372800942835
sS'little'
p375
F274.28610707335088
sS'nations'
p376
F245.19671766094876
sS'officials'
p377
F178.40213553301729
sS'exists'
p378
F291.38045273598135
sS'service'
p379
F359.39860836109182
sS'los'
p380
F186.80733035759181
sS'girls'
p381
F192.67307374756959
sS'system'
p382
F305.53386798894957
sS'least'
p383
F297.89314702967266
sS'anyone'
p384
F300.45775932598173
sS'attack'
p385
F288.83547788687736
sS'2'
F327.59744981791232
sS'statement'
p386
F250.88748547179091
sS'convention'
p387
F185.48908259261609
sS'palestine'
p388
F331.77461314043677
sS'majority'
p389
F181.80811665817168
sS'john'
p390
F209.99885578816958
sS'genesis'
p391
F221.40280873600651
sS'eyes'
p392
F232.84381150118236
sS'murder'
p393
F224.62374718765264
sS'way'
p394
F361.77921229662473
sS'behind'
p395
F219.89482619422836
sS'villages'
p396
F365.58130020772802
sS'serve'
p397
F305.49699597813918
sS'took'
p398
F338.02547311355659
sS'1919'
p399
F300.23559282151115
sS'part'
p400
F366.19193430656293
sS'western'
p401
F304.76257616786222
sS'probably'
p402
F246.381523010487
sS'believe'
p403
F341.64533606393769
sS'1915'
p404
F224.96708040137287
sS'1914'
p405
F230.56102903548447
sS'population'
p406
F363.47953633708835
sS'11'
p407
F301.12484297711222
sS'10'
p408
F354.5863738856911
sS'1993apr15'
p409
F271.44460382345522
sS'12'
p410
F354.70438820636264
sS'15'
p411
F377.86028544963381
sS'14'
p412
F348.90467740653634
sS'17'
p413
F349.59173558853996
sS'16'
p414
F373.96834910522432
sS'19'
p415
F358.96208775923878
sS'18'
p416
F351.47071133639605
sS'1993apr19'
p417
F207.67993842740469
sS'final'
p418
F226.6382720270596
sS'matter'
p419
F256.3456454572169
sS'1923'
p420
F181.42556491108272
sS'magnesium'
p421
F359.7788882662523
sS'historical'
p422
F250.03726657842725
sS'sera'
p423
F365.51754067022716
sS'yugoslavia'
p424
F345.57558496258827
sS'russia'
p425
F182.80083501881006
sS'result'
p426
F180.11258744500404
sS'san'
p427
F209.06883237958527
sS'close'
p428
F182.80083501881006
sS'ran'
p429
F212.58806269602013
sS'pro'
p430
F226.02891719886551
sS'mind'
p431
F215.72061952187585
sS'talking'
p432
F262.75837650110464
sS'say'
p433
F353.20286596555252
sS'concordia'
p434
F257.28336031183596
sS'ans'
p435
F332.12432914943736
sS'need'
p436
F302.76485797301365
sS'seen'
p437
F266.29761190037055
sS'seem'
p438
F211.44640641184193
sS'saw'
p439
F337.13744895260811
sS'clearly'
p440
F193.27664540218544
sS'sat'
p441
F245.19671766094876
sS'thought'
p442
F295.49680803337526
sS'documents'
p443
F244.20115555021721
sS'rochester'
p444
F376.71990562769059
sS'form'
p445
F212.44070294849712
sS'russians'
p446
F177.61164869115041
sS'greek'
p447
F323.26550431574009
sS'ncsu'
p448
F291.79906280907579
sS'self'
p449
F263.13280192800255
sS'1967'
p450
F183.48894254836168
sS'able'
p451
F254.55184234411453
sS'six'
p452
F179.39463543907698
sS'also'
p453
F322.43067847353598
sS'high'
p454
F194.27003740843699
sS'take'
p455
F356.73518027600227
sS'forces'
p456
F303.48470591572533
sS'hp'
p457
F312.82548892297314
sS'club'
p458
F366.02480590038635
sS'deir'
p459
F186.80733035759181
sS'begin'
p460
F180.11258744500404
sS'sure'
p461
F328.73841567363849
sS'allow'
p462
F196.78524273302557
sS'though'
p463
F274.25935440455561
sS'gerard'
p464
F226.34688721327595
sS'uunet'
p465
F363.33540803073902
sS'germany'
p466
F234.86367948539268
sS'letter'
p467
F194.86018914176245
sS'claims'
p468
F213.87682487634586
sS'nothing'
p469
F345.99827883560289
sS'cases'
p470
F181.10519819260847
sS'pages'
p471
F200.52628669469414
sS'death'
p472
F278.12222276727886
sS'especially'
p473
F205.58589385152234
sS'considered'
p474
F181.80811665817168
sS'professor'
p475
F287.97438711855301
sS'later'
p476
F309.78597241128671
sS'm'
F388.05630943447693
sS'face'
p477
F254.43162434401091
sS'looked'
p478
F192.67307374756959
sS'massacres'
p479
F207.06873788931293
sS'sources'
p480
F221.26456841387008
sS'turk'
p481
F205.08495460086647
sS'thunder'
p482
F244.48336879145927
sS'north'
p483
F193.27664540218544
sS'everything'
p484
F311.2685963986342
sS'left'
p485
F361.66129889437485
sS'attacking'
p486
F182.80083501881006
sS'came'
p487
F358.89360240572728
sS'saying'
p488
F289.69015861496172
sS'shot'
p489
F258.17239001551843
sS'yassin'
p490
F254.31140788746018
sS'show'
p491
F236.9022031191445
sS'german'
p492
F223.97225284596044
sS'bitnet'
p493
F182.73966868679344
sS'dbd'
p494
F287.97438711855301
sS'large'
p495
F208.5396785319335
sS'cdp'
p496
F251.36341270544784
sS'soldiers'
p497
F378.97552925452368
sS'headlines'
p498
F202.58391856914861
sS'find'
p499
F321.27564039727133
sS'occupation'
p500
F266.29761190037055
sS'beyer'
p501
F218.51433229625704
sS'based'
p502
F299.89317093447414
sS'gulf'
p503
F191.67977024299117
sS'justice'
p504
F197.4241389988909
sS'explain'
p505
F222.62367331385857
sS'less'
p506
F213.01670929193881
sS'3'
F389.88551973702079
sS'haven'
p507
F209.99885578816958
sS'failed'
p508
F212.88246401399977
sS'bush'
p509
F177.66892059062249
sS'going'
p510
F377.25629974290428
sS'black'
p511
F179.39463543907698
sS'indeed'
p512
F203.57779606908554
sS'8'
F267.08026449595627
sS'moses'
p513
F185.73540096034742
sS'darwin'
p514
F274.25935440455561
sS'local'
p515
F250.88748547179091
sS'hope'
p516
F278.12222276727886
sS'opinions'
p517
F389.52633786063342
sS'get'
p518
F366.72518316174029
sS'massacre'
p519
F289.69015861496172
sS'stop'
p520
F262.1366879514195
sS'kind'
p521
F242.80024045086932
sS'cannot'
p522
F246.381523010487
sS'rest'
p523
F236.9022031191445
sS'words'
p524
F257.6596974730183
sS'new'
p525
F364.59525057733237
sS'report'
p526
F277.22191274856942
sS'dr'
p527
F238.43401526265126
sS'areas'
p528
F181.80811665817168
sS'countries'
p529
F304.7765768122826
sS'h'
F277.41860982621995
sS'iranian'
p530
F358.74396276134473
sS'calling'
p531
F199.53256290035219
sS'bad'
p532
F267.24425195812756
sS'ohio'
p533
F618.48007118483554
sS'told'
p534
F356.87910083695397
sS'wrote'
p535
F252.17433723294371
sS'view'
p536
F211.99894593429656
sS'february'
p537
F193.27664540218544
sS'set'
p538
F238.14177354879715
sS'questions'
p539
F258.93417150383243
sS'bony1'
p540
F383.17957485514256
sS'intelligence'
p541
F178.40213553301729
sS'national'
p542
F301.00459717084493
sS'1920'
p543
F319.66118994301365
sS'see'
p544
F352.91580636478403
sS'computer'
p545
F236.9022031191445
sS'zaphod'
p546
F368.39223098319746
sS'us'
p547
F219.85512760284684
sS'arf'
p548
F230.97138574739668
sS'greece'
p549
F338.07959962216745
sS'christian'
p550
F224.28086998171111
sS'livni'
p551
F261.07707691294002
sS'sei'
p552
F364.9673226317297
sS'02'
p553
F192.06950867752397
sS'00'
p554
F281.23122632314039
sS'01'
p555
F188.80746262222723
sS'turks'
p556
F338.77409761184879
sS'05'
p557
F201.06448994477586
sS'ways'
p558
F301.7677537313096
sS'away'
p559
F335.12955219709329
sS'09'
p560
F194.70059783749005
sS'please'
p561
F298.30166044105988
sS'weapons'
p562
F230.56102903548447
sS'enough'
p563
F274.25935440455561
sS'won'
p564
F178.40213553301729
sS'closed'
p565
F312.85360058002203
sS'ira'
p566
F253.95374329169695
sS'burned'
p567
F218.73766180535372
sS'nntp'
p568
F375.99433230604325
sS'xref'
p569
F325.36566171449829
sS'berkeley'
p570
F260.7226198510096
sS'europe'
p571
F359.74569686654922
sS'college'
p572
F185.15527813585751
sS'muslim'
p573
F354.79675224214799
sS'europa'
p574
F346.71651602679088
sS'asala'
p575
F189.43841951755789
sS'however'
p576
F320.27814457438598
sS'killing'
p577
F298.50606677495949
sS'hernlem'
p578
F327.6357201550428
sS'harvard'
p579
F334.44018585971008
sS'armenia'
p580
F268.44808767886173
sS'20'
p581
F375.96107414468196
sS'come'
p582
F358.98356324046898
sS'tue'
p583
F263.18848687992556
sS'received'
p584
F191.67977024299117
sS'c'
F310.67491116420933
sS'last'
p585
F368.06166081055892
sS'country'
p586
F350.92562310791254
sS'taking'
p587
F229.26347621408775
sS'museum'
p588
F209.53384191180476
sS'hours'
p589
F178.40213553301729
sS'according'
p590
F302.52509649979618
sS'foreign'
p591
F282.76036477226728
sS'april'
p592
F255.65965268038582
sS'became'
p593
F211.44640641184193
sS'brad'
p594
F202.58391856914861
sS'whole'
p595
F321.27564039727133
sS'asked'
p596
F290.68698736051118
sS'comes'
p597
F199.53256290035219
sS'pakistan'
p598
F302.00168454399062
sS'co'
p599
F257.56444609034355
sS'point'
p600
F335.63237105549825
sS'cc'
p601
F367.49489980321329
sS'cb'
p602
F202.72969946933785
sS'ca'
p603
F422.5461438244763
sS'others'
p604
F317.49756238490954
sS'community'
p605
F235.65319941135735
sS'bosnians'
p606
F218.51433229625704
sS'anti'
p607
F376.37553120545834
sS'village'
p608
F329.31610984803029
sS'respect'
p609
F177.95973721197092
sS'angeles'
p610
F186.80733035759181
sS'uci'
p611
F459.84704045133913
sS'speak'
p612
F212.88246401399977
sS'turkey'
p613
F365.67796131833512
sS'better'
p614
F274.25935440455561
sS'pp'
p615
F207.06873788931293
sS'strong'
p616
F181.80811665817168
sS'proceeded'
p617
F280.84982176704926
sS'agree'
p618
F246.02122103958226
sS'west'
p619
F300.97968202068125
sS'fri'
p620
F207.06873788931293
sS'political'
p621
F363.7195196696415
sS'three'
p622
F362.44570397768484
sS'mark'
p623
F191.06259616186344
sS'wupost'
p624
F209.99885578816958
sS'much'
p625
F346.79500170383164
sS'gaza'
p626
F322.04687692242288
sS'borders'
p627
F251.96878445170549
sS'territory'
p628
F255.32417995794134
sS'kurds'
p629
F258.75931081261228
sS'stanford'
p630
F189.67218149795011
sS'followup'
p631
F305.49699597813918
sS'life'
p632
F289.97441486811874
sS'lived'
p633
F262.1366879514195
sS'general'
p634
F310.76583197276204
sS'innocent'
p635
F219.12305038732035
sS'eastern'
p636
F247.55747868699115
sS'fire'
p637
F237.65325988328024
sS'turned'
p638
F200.52628669469414
sS'andrew'
p639
F220.13982074174973
sS'else'
p640
F296.6859078312097
sS'language'
p641
F183.48894254836168
sS'38'
p642
F180.11258744500404
sS'lives'
p643
F253.43576800624751
sS'minister'
p644
F224.28086998171111
sS'child'
p645
F220.44752473235528
sS'chess'
p646
F190.06938356179162
sS'worked'
p647
F186.80733035759181
sS'evidence'
p648
F236.64846752658445
sS'mcs'
p649
F232.93932956720337
sS'former'
p650
F239.13712956366473
sS'present'
p651
F227.95592420641054
sS'aid'
p652
F182.80083501881006
sS'case'
p653
F355.13311660386267
sS'lebanese'
p654
F311.9915056054935
sS'save'
p655
F193.67989199969719
sS'look'
p656
F311.38687463859014
sS'zuma'
p657
F330.97342861670825
sS'endor'
p658
F194.86018914176245
sS'holocaust'
p659
F333.72567715199676
sS'n'
F296.52997459669234
sS'33'
p660
F180.11258744500404
sS'near'
p661
F345.95588996378473
sS'conspiracy'
p662
F189.21438617138199
sS'shall'
p663
F178.40213553301729
sS'many'
p664
F320.22134162575708
sS'situation'
p665
F268.31501805113095
sS'bb3'
p666
F205.58589385152234
sS'region'
p667
F248.88743592538819
sS'carleton'
p668
F230.53377772467857
sS'shouting'
p669
F194.70059783749005
sS'americans'
p670
F216.92915397928022
sS'ermeni'
p671
F180.11258744500404
sS've'
p672
F359.63332162131672
sS'century'
p673
F229.26347621408775
sS'almost'
p674
F241.80475854367833
sS'nysernet'
p675
F274.59350037730837
sS'davidian'
p676
F284.56799773288219
sS'j'
F205.58589385152234
sS'thus'
p677
F221.26456841387008
sS'ii'
p678
F269.33855308822149
sS'middle'
p679
F264.23253425152814
sS'good'
p680
F325.10645831168824
sS'il'
p681
F305.76795681576073
sS'march'
p682
F265.26888968784539
sS'arabic'
p683
F364.9673226317297
sS'04'
p684
F190.44542893973917
sS'different'
p685
F281.84643575389993
sS'terrorist'
p686
F211.44640641184193
sS'etc'
p687
F271.40797312359194
sS'perhaps'
p688
F244.63046415083761
sS'media'
p689
F236.64846752658445
sS'make'
p690
F368.41356357759065
sS'member'
p691
F209.99885578816958
sS'azerbaijani'
p692
F308.78560846924705
sS'9'
F197.4241389988909
sS'party'
p693
F350.45708309079072
sS'terrorism'
p694
F293.71602022125575
sS'several'
p695
F281.00158701388978
sS'events'
p696
F238.14177354879715
sS'conflict'
p697
F253.17859861375695
sS'european'
p698
F233.12653112359874
sS'independent'
p699
F229.26347621408775
sS'used'
p700
F309.37574283665236
sS'columbia'
p701
F431.26372844377067
sS'mountain'
p702
F308.22578726067883
sS'island'
p703
F197.88045411912555
sS'upon'
p704
F255.54773273963292
sS'virginia'
p705
F420.07867301825291
sS'000'
p706
F444.31565161431195
sS'two'
p707
F354.41154827237722
sS'never'
p708
F376.13870009986476
sS'opinion'
p709
F213.87682487634586
sS'along'
p710
F178.40213553301729
sS'noc'
p711
F366.81230084709097
sS'caen'
p712
F191.67977024299117
sS'reference'
p713
F193.27664540218544
sS'destruction'
p714
F186.80733035759181
sS'arab'
p715
F305.72474704807752
sS'center'
p716
F366.15419385392244
sS'try'
p717
F265.26888968784539
sS'thu'
p718
F281.76372800942835
sS'well'
p719
F344.08005099344444
sS'fighting'
p720
F262.07316045049032
sS'crabapple'
p721
F348.53922205891058
sS'sdpa'
p722
F380.75573157774636
sS'person'
p723
F305.27668110027832
sS'without'
p724
F332.54748107165994
sS'mamma'
p725
F259.39055916503673
sS'mother'
p726
F248.39943377668772
sS'position'
p727
F213.87682487634586
sS'soviet'
p728
F183.36866738082654
sS'bodies'
p729
F249.88315019358959
sS'know'
p730
F267.89683278502116
sS'things'
p731
F327.03497580985908
sS'nagorno'
p732
F211.99894593429656
sS'among'
p733
F293.21303419972963
sS'42'
p734
F186.14820258529446
sS'hands'
p735
F206.57991770839973
sS'actions'
p736
F234.86367948539268
sS'sumgait'
p737
F280.20595111090523
sS'kurdish'
p738
F183.48894254836168
sS'kill'
p739
F327.36795292537306
sS'nf'
p740
F185.15527813585751
sS'human'
p741
F344.41938784666559
sS'using'
p742
F201.06448994477586
sS'facts'
p743
F218.51433229625704
sS'yes'
p744
F265.22870770845208
sS'yet'
p745
F255.65965268038582
sS'cut'
p746
F231.84868165675513
sS'serbs'
p747
F300.54336005472288
sS'nick'
p748
F198.47644380441466
sS'thinking'
p749
F212.88246401399977
sS'seems'
p750
F297.10040344985345
sS'except'
p751
F202.58391856914861
sS'day'
p752
F322.81896093242392
sS'atrocities'
p753
F183.48894254836168
sS'source'
p754
F304.27379647956377
sS'4'
F364.80712220694193
sS'homeland'
p755
F233.30443004787546
sS'igc'
p756
F420.999324913843
sS'adl'
p757
F353.78683641560241
sS'east'
p758
F291.38045273598135
sS'sea'
p759
F184.48176543255656
sS'gave'
p760
F253.43576800624751
sS'real'
p761
F262.1366879514195
sS'makes'
p762
F196.43057682652602
sS'jake'
p763
F519.83187069062194
sS'victims'
p764
F249.57523047632287
sS'around'
p765
F329.85019484728696
sS'held'
p766
F187.15541420694143
sS'government'
p767
F313.8781643523854
sS'read'
p768
F327.73344221430187
sS'big'
p769
F214.30715917001658
sS'karina'
p770
F181.10519819260847
sS'possible'
p771
F253.4968105421656
sS'early'
p772
F245.48683940127015
sS'five'
p773
F208.06283233166118
sS'mon'
p774
F287.1068449576851
sS'press'
p775
F340.50168662384431
sS'world'
p776
F257.19911177002399
sS'like'
p777
F251.04123170467943
sS'necessary'
p778
F183.48894254836168
sS'd'
F368.60378031968366
sS'car'
p779
F212.58806269602013
sS'50'
p780
F238.14177354879715
sS'mit'
p781
F395.69670639078686
sS'continue'
p782
F197.98797926817903
sS'either'
p783
F281.76372800942835
sS'night'
p784
F221.89490327977799
sS'completely'
p785
F197.98797926817903
sS'simply'
p786
F233.12653112359874
sS'security'
p787
F299.10042764353841
sS'harry'
p788
F194.27003740843699
sS'refugees'
p789
F209.99885578816958
sS'page'
p790
F217.12296987591182
sS'right'
p791
F325.9196603266559
sS'old'
p792
F337.59900349413618
sS'often'
p793
F215.30158292324975
sS'crowd'
p794
F201.5326697311111
sS'understand'
p795
F241.80475854367833
sS'lebanon'
p796
F303.76777626647009
sS'back'
p797
F369.54366653335018
sS'dead'
p798
F335.62906436560564
sS'oh'
p799
F213.87682487634586
sS'certain'
p800
F181.80811665817168
sS'malaysia'
p801
F196.43057682652602
sS'towards'
p802
F187.80035353779834
sS'udel'
p803
F275.39365646982424
sS'escape'
p804
F306.94891862845486
sS'home'
p805
F347.00441520747802
sS'empire'
p806
F260.00959225796674
sS'5'
F366.33477056819186
sS'reasons'
p807
F190.06938356179162
sS'hezbollah'
p808
F190.26703758689982
sS'anatolia'
p809
F365.27066555046156
sS'vs'
p810
F193.27664540218544
sS'congress'
p811
F194.86018914176245
sS'nazi'
p812
F323.68163264284129
sS'zionist'
p813
F257.85075116829961
sS'moslem'
p814
F217.12296987591182
sS'best'
p815
F181.10519819260847
sS'umd'
p816
F373.17529005976098
sS'zionism'
p817
F269.32867419018424
sS'umn'
p818
F233.95797909144068
sS'leader'
p819
F193.27664540218544
sS'officer'
p820
F190.06938356179162
sS'knew'
p821
F213.01670929193881
sS'tartar'
p822
F194.86018914176245
sS'power'
p823
F309.14899354800752
sS'problems'
p824
F194.86018914176245
sS'serbian'
p825
F177.66892059062249
sS'1993apr20'
p826
F229.53363307078999
sS'slaughter'
p827
F215.72061952187585
sS'host'
p828
F366.28572200493511
sS'although'
p829
F234.39467259775984
sS'become'
p830
F215.72061952187585
sS'plo'
p831
F207.06873788931293
sS'andi'
p832
F222.62367331385857
sS'post'
p833
F266.23257370066045
sS'ab4z'
p834
F219.89482619422836
sS'1993apr27'
p835
F236.21070349137659
sS'1993apr16'
p836
F208.5396785319335
sS'carried'
p837
F205.58589385152234
sS'anything'
p838
F326.71589622412233
sS'getting'
p839
F236.39473423826016
sS'attacks'
p840
F296.6859078312097
sS'freedom'
p841
F309.62873371581111
sS'citizens'
p842
F271.33858966921548
sS'o'
F317.85251537961739
sS'thousands'
p843
F246.02122103958226
sS'hasan'
p844
F242.82672002899244
sS'important'
p845
F203.57779606908554
sS'genocide'
p846
F354.6882261567269
sS'neighbor'
p847
F180.11258744500404
sS'act'
p848
F202.58391856914861
sS'hatred'
p849
F197.4241389988909
sS'palestinians'
p850
F350.44793554788629
sS'road'
p851
F218.51433229625704
sS'tel'
p852
F209.63547747758523
sS'cambridge'
p853
F266.1375072984344
sS'clinton'
p854
F238.93580843381176
sS'colorado'
p855
F272.82353669476441
sS'terrorists'
p856
F183.48894254836168
sS'civil'
p857
F279.12573565746533
sS'within'
p858
F233.12653112359874
sS'washington'
p859
F211.44640641184193
sS'sol'
p860
F178.40213553301729
sS'arms'
p861
F270.33486757340052
sS'struggle'
p862
F180.11258744500404
sS'parties'
p863
F236.39473423826016
sS'roads'
p864
F295.49680803337526
sS'jerusalem'
p865
F288.83547788687736
sS'wam'
p866
F274.38617072230613
sS'1982'
p867
F188.44530032402969
sS'area'
p868
F279.00155530470113
sS'aren'
p869
F187.15541420694143
sS'howland'
p870
F332.12432914943736
sS'support'
p871
F315.2095724799795
sS'question'
p872
F337.02764074587901
sS'racism'
p873
F219.89482619422836
sS'long'
p874
F339.65832992948646
sS'fight'
p875
F228.95090745590716
sS'strip'
p876
F188.44530032402969
sS'start'
p877
F249.72903551757878
sS'joseph'
p878
F181.80811665817168
sS'racist'
p879
F204.09100303721419
sS'lot'
p880
F227.95592420641054
sS'house'
p881
F256.44847854197667
sS'war'
p882
F340.86815925648807
sS'across'
p883
F191.67977024299117
sS'building'
p884
F290.25935768753982
sS'head'
p885
F280.92570396197488
sS'azeri'
p886
F305.53386798894957
sS'iastate'
p887
F295.7748383674226
sS'bosnian'
p888
F299.12178274894865
sS'huji'
p889
F258.96791735314173
sS'wed'
p890
F193.27664540218544
sS'idea'
p891
F218.73766180535372
sS'sdd'
p892
F227.95592420641054
sS'gatech'
p893
F306.28537957735097
sS'hear'
p894
F228.75483282192783
sS'alive'
p895
F219.50893657784491
sS'hm'
p896
F260.23720108955672
sS'russian'
p897
F375.43435805086381
sS'sun'
p898
F229.53363307078999
sS'line'
p899
F201.00771121827285
sS'trying'
p900
F285.46179176724911
sS'true'
p901
F330.39899791805658
sS'proposal'
p902
F188.44530032402969
sS'happening'
p903
F184.48176543255656
sS'made'
p904
F348.71652644209058
sS'places'
p905
F194.86018914176245
sS'born'
p906
F194.86018914176245
sS'whether'
p907
F199.53256290035219
sS'official'
p908
F235.65319941135735
sS'social'
p909
F183.48894254836168
sS'extermination'
p910
F325.03496025112952
sS'serdar'
p911
F351.83413779104404
sS'cis'
p912
F377.81586387066943
sS'un'
p913
F279.3140550544519
sS'planes'
p914
F194.12598269609279
sS'distribution'
p915
F326.17537938731567
sS'fact'
p916
F372.64485496603623
sS'propaganda'
p917
F239.13712956366473
sS'wants'
p918
F207.10974883327697
sS'ac'
p919
F327.10527173654611
sS'v'
F241.139205518936
sS'ai'
p920
F245.21690953374352
sS'recognize'
p921
F202.58391856914861
sS'arabs'
p922
F372.47297888819838
sS'cleveland'
p923
F279.92911306169651
sS'al'
p924
F238.59667019330968
sS'doesn'
p925
F218.51433229625704
sS'ins'
p926
F326.53486159907385
sS'single'
p927
F315.87821675276348
sS'ar'
p928
F212.88246401399977
sS'au'
p929
F306.12557427510546
sS'together'
p930
F186.14820258529446
sS'croats'
p931
F189.43841951755789
sS'k'
F206.63476263569618
sS'adelaide'
p932
F214.4120312585523
sS'palestinian'
p933
F358.87418092431869
sS'uucp'
p934
F340.77511659449215
sS'oac'
p935
F291.38045273598135
sS'karabakh'
p936
F309.08498095761036
sS'istanbul'
p937
F322.49452455553535
sS'floor'
p938
F186.14820258529446
sS'47'
p939
F179.39463543907698
sS'44'
p940
F183.48894254836168
sS'peace'
p941
F370.75345763843251
sS'percent'
p942
F212.80783814166162
sS'40'
p943
F243.00746125326174
sS'41'
p944
F191.06259616186344
sS'tim'
p945
F301.00459717084493
sS'book'
p946
F274.31286073525371
sS'republic'
p947
F266.26509220730912
sS'fs7'
p948
F345.18729591885273
sS'department'
p949
F398.49500014027058
sS'really'
p950
F340.09731190531943
sS'francisco'
p951
F195.85366734088123
sS'unocal'
p952
F233.52428323939066
sS'crime'
p953
F186.14820258529446
sS'time'
p954
F351.80610091989865
sS'shostack'
p955
F208.5396785319335
sS'stay'
p956
F181.10519819260847
sS'muslims'
p957
F363.09917402355347
sS'wounded'
p958
F205.60290154772437
sS'authorities'
p959
F205.58589385152234
sS'argic'
p960
F353.86167693388808
sS'irvine'
p961
F221.26456841387008
sS'13'
p962
F344.80729604204373
sS'died'
p963
F224.96708040137287
sS'began'
p964
F229.26347621408775
sS'ago'
p965
F271.32871835401573
sS'land'
p966
F365.81544679420955
sS'e'
F312.00887344616444
sS'longer'
p967
F313.20955361742898
sS'wife'
p968
F241.80475854367833
sS'rule'
p969
F205.58589385152234
sS'afraid'
p970
F197.88045411912555
sS'u'
F360.50977314014318
sS'adam'
p971
F444.94651104886765
sS'kuwait'
p972
F292.53849683414501
sS'international'
p973
F337.13744895260811
sS'cpr'
p974
F326.17537938731567
s.